(dp1
S'layout'
p2
(ilayout
Layout
p3
(dp4
S'capsules'
p5
(lp6
(I6
I5
tp7
a(I25
I10
tp8
asS'numGhosts'
p9
I4
sS'food'
p10
(igame
Grid
p11
(dp12
S'CELLS_PER_INT'
p13
I30
sS'width'
p14
I32
sS'data'
p15
(lp16
(lp17
I00
aI00
aI00
aI00
aI00
aI00
aI00
aI00
aI00
aI00
aI00
aI00
aI00
aI00
aI00
aI00
aa(lp18
I00
aI00
aI00
aI00
aI00
aI00
aI00
aI00
aI00
aI00
aI00
aI00
aI00
aI00
aI00
aI00
aa(lp19
I00
aI00
aI00
aI00
aI00
aI00
aI00
aI00
aI00
aI00
aI00
aI00
aI00
aI00
aI00
aI00
aa(lp20
I00
aI01
aI01
aI00
aI00
aI00
aI00
aI00
aI01
aI00
aI00
aI00
aI00
aI00
aI00
aI00
aa(lp21
I00
aI00
aI00
aI00
aI00
aI00
aI00
aI00
aI00
aI00
aI00
aI00
aI00
aI00
aI00
aI00
aa(lp22
I00
aI01
aI00
aI00
aI00
aI00
aI00
aI00
aI00
aI00
aI00
aI00
aI01
aI00
aI01
aI00
aa(lp23
I00
aI00
aI00
aI00
aI00
aI00
aI00
aI00
aI00
aI00
aI00
aI00
aI00
aI00
aI00
aI00
aa(lp24
I00
aI00
aI00
aI01
aI00
aI00
aI00
aI00
aI01
aI01
aI00
aI00
aI00
aI00
aI00
aI00
aa(lp25
I00
aI00
aI00
aI01
aI00
aI00
aI00
aI00
aI00
aI01
aI00
aI00
aI00
aI00
aI01
aI00
aa(lp26
I00
aI00
aI00
aI00
aI00
aI01
aI00
aI00
aI00
aI00
aI00
aI01
aI00
aI00
aI00
aI00
aa(lp27
I00
aI00
aI00
aI01
aI00
aI00
aI00
aI01
aI00
aI01
aI00
aI01
aI00
aI00
aI01
aI00
aa(lp28
I00
aI00
aI00
aI00
aI00
aI00
aI00
aI00
aI00
aI00
aI00
aI00
aI00
aI00
aI00
aI00
aa(lp29
I00
aI00
aI00
aI00
aI00
aI00
aI00
aI00
aI00
aI00
aI00
aI00
aI00
aI00
aI00
aI00
aa(lp30
I00
aI00
aI00
aI00
aI00
aI00
aI00
aI00
aI00
aI00
aI00
aI00
aI00
aI00
aI00
aI00
aa(lp31
I00
aI00
aI00
aI00
aI00
aI00
aI00
aI00
aI00
aI01
aI00
aI00
aI00
aI00
aI00
aI00
aa(lp32
I00
aI00
aI00
aI00
aI00
aI00
aI00
aI00
aI00
aI00
aI00
aI00
aI00
aI00
aI00
aI00
aa(lp33
I00
aI00
aI00
aI00
aI00
aI00
aI00
aI00
aI00
aI00
aI00
aI00
aI00
aI00
aI00
aI00
aa(lp34
I00
aI00
aI00
aI00
aI00
aI00
aI01
aI00
aI00
aI00
aI00
aI00
aI00
aI00
aI00
aI00
aa(lp35
I00
aI00
aI00
aI00
aI00
aI00
aI00
aI00
aI00
aI00
aI00
aI00
aI00
aI00
aI00
aI00
aa(lp36
I00
aI00
aI00
aI00
aI00
aI00
aI00
aI00
aI00
aI00
aI00
aI00
aI00
aI00
aI00
aI00
aa(lp37
I00
aI00
aI00
aI00
aI00
aI00
aI00
aI00
aI00
aI00
aI00
aI00
aI00
aI00
aI00
aI00
aa(lp38
I00
aI01
aI00
aI00
aI01
aI00
aI01
aI00
aI01
aI00
aI00
aI00
aI01
aI00
aI00
aI00
aa(lp39
I00
aI00
aI00
aI00
aI01
aI00
aI00
aI00
aI00
aI00
aI01
aI00
aI00
aI00
aI00
aI00
aa(lp40
I00
aI01
aI00
aI00
aI00
aI00
aI01
aI00
aI00
aI00
aI00
aI00
aI01
aI00
aI00
aI00
aa(lp41
I00
aI00
aI00
aI00
aI00
aI00
aI01
aI01
aI00
aI00
aI00
aI00
aI01
aI00
aI00
aI00
aa(lp42
I00
aI00
aI00
aI00
aI00
aI00
aI00
aI00
aI00
aI00
aI00
aI00
aI00
aI00
aI00
aI00
aa(lp43
I00
aI01
aI00
aI01
aI00
aI00
aI00
aI00
aI00
aI00
aI00
aI00
aI00
aI00
aI01
aI00
aa(lp44
I00
aI00
aI00
aI00
aI00
aI00
aI00
aI00
aI00
aI00
aI00
aI00
aI00
aI00
aI00
aI00
aa(lp45
I00
aI00
aI00
aI00
aI00
aI00
aI00
aI01
aI00
aI00
aI00
aI00
aI00
aI01
aI01
aI00
aa(lp46
I00
aI00
aI00
aI00
aI00
aI00
aI00
aI00
aI00
aI00
aI00
aI00
aI00
aI00
aI00
aI00
aa(lp47
I00
aI00
aI00
aI00
aI00
aI00
aI00
aI00
aI00
aI00
aI00
aI00
aI00
aI00
aI00
aI00
aa(lp48
I00
aI00
aI00
aI00
aI00
aI00
aI00
aI00
aI00
aI00
aI00
aI00
aI00
aI00
aI00
aI00
aasS'height'
p49
I16
sbsS'agentPositions'
p50
(lp51
(I00
(I1
I2
tp52
tp53
a(I00
(I30
I13
tp54
tp55
a(I00
(I1
I1
tp56
tp57
a(I00
(I30
I14
tp58
tp59
asg49
I16
sg14
I32
sS'walls'
p60
(igame
Grid
p61
(dp62
g13
I30
sg14
I32
sg15
(lp63
(lp64
I01
aI01
aI01
aI01
aI01
aI01
aI01
aI01
aI01
aI01
aI01
aI01
aI01
aI01
aI01
aI01
aa(lp65
I01
aI00
aI00
aI00
aI00
aI00
aI00
aI00
aI00
aI00
aI00
aI00
aI00
aI00
aI00
aI01
aa(lp66
I01
aI01
aI01
aI01
aI01
aI01
aI01
aI01
aI01
aI01
aI01
aI01
aI01
aI01
aI00
aI01
aa(lp67
I01
aI00
aI00
aI00
aI00
aI00
aI00
aI01
aI00
aI01
aI00
aI00
aI00
aI00
aI00
aI01
aa(lp68
I01
aI01
aI01
aI01
aI01
aI01
aI00
aI00
aI00
aI00
aI00
aI01
aI01
aI01
aI01
aI01
aa(lp69
I01
aI00
aI00
aI00
aI00
aI00
aI00
aI00
aI01
aI01
aI00
aI01
aI00
aI01
aI00
aI01
aa(lp70
I01
aI01
aI00
aI01
aI01
aI00
aI01
aI01
aI01
aI00
aI00
aI00
aI00
aI00
aI00
aI01
aa(lp71
I01
aI00
aI00
aI00
aI01
aI00
aI00
aI01
aI00
aI00
aI01
aI01
aI01
aI00
aI01
aI01
aa(lp72
I01
aI00
aI01
aI00
aI01
aI01
aI00
aI01
aI01
aI00
aI01
aI00
aI00
aI00
aI00
aI01
aa(lp73
I01
aI00
aI01
aI01
aI01
aI00
aI00
aI01
aI01
aI01
aI01
aI00
aI01
aI00
aI01
aI01
aa(lp74
I01
aI00
aI01
aI00
aI01
aI01
aI00
aI00
aI01
aI00
aI01
aI00
aI01
aI00
aI00
aI01
aa(lp75
I01
aI00
aI00
aI00
aI00
aI01
aI00
aI01
aI01
aI00
aI01
aI01
aI01
aI00
aI01
aI01
aa(lp76
I01
aI01
aI00
aI01
aI00
aI01
aI00
aI00
aI00
aI00
aI00
aI00
aI00
aI00
aI00
aI01
aa(lp77
I01
aI00
aI00
aI01
aI00
aI00
aI00
aI00
aI00
aI01
aI01
aI01
aI00
aI01
aI00
aI01
aa(lp78
I01
aI00
aI01
aI01
aI01
aI00
aI01
aI00
aI00
aI00
aI01
aI00
aI00
aI01
aI00
aI01
aa(lp79
I01
aI00
aI00
aI01
aI00
aI00
aI01
aI00
aI00
aI01
aI01
aI00
aI00
aI00
aI00
aI01
aa(lp80
I01
aI00
aI00
aI00
aI00
aI01
aI01
aI00
aI00
aI01
aI00
aI00
aI01
aI00
aI00
aI01
aa(lp81
I01
aI00
aI01
aI00
aI00
aI01
aI00
aI00
aI00
aI01
aI00
aI01
aI01
aI01
aI00
aI01
aa(lp82
I01
aI00
aI01
aI00
aI01
aI01
aI01
aI00
aI00
aI00
aI00
aI00
aI01
aI00
aI00
aI01
aa(lp83
I01
aI00
aI00
aI00
aI00
aI00
aI00
aI00
aI00
aI00
aI01
aI00
aI01
aI00
aI01
aI01
aa(lp84
I01
aI01
aI00
aI01
aI01
aI01
aI00
aI01
aI01
aI00
aI01
aI00
aI00
aI00
aI00
aI01
aa(lp85
I01
aI00
aI00
aI01
aI00
aI01
aI00
aI01
aI00
aI00
aI01
aI01
aI00
aI01
aI00
aI01
aa(lp86
I01
aI01
aI00
aI01
aI00
aI01
aI01
aI01
aI01
aI00
aI00
aI01
aI01
aI01
aI00
aI01
aa(lp87
I01
aI00
aI00
aI00
aI00
aI01
aI00
aI01
aI01
aI00
aI01
aI01
aI00
aI01
aI00
aI01
aa(lp88
I01
aI01
aI00
aI01
aI01
aI01
aI00
aI00
aI01
aI00
aI00
aI01
aI00
aI00
aI00
aI01
aa(lp89
I01
aI00
aI00
aI00
aI00
aI00
aI00
aI01
aI01
aI01
aI00
aI01
aI01
aI00
aI01
aI01
aa(lp90
I01
aI00
aI01
aI00
aI01
aI00
aI01
aI01
aI00
aI00
aI00
aI00
aI00
aI00
aI00
aI01
aa(lp91
I01
aI01
aI01
aI01
aI01
aI00
aI00
aI00
aI00
aI00
aI01
aI01
aI01
aI01
aI01
aI01
aa(lp92
I01
aI00
aI00
aI00
aI00
aI00
aI01
aI00
aI01
aI00
aI00
aI00
aI00
aI00
aI00
aI01
aa(lp93
I01
aI00
aI01
aI01
aI01
aI01
aI01
aI01
aI01
aI01
aI01
aI01
aI01
aI01
aI01
aI01
aa(lp94
I01
aI00
aI00
aI00
aI00
aI00
aI00
aI00
aI00
aI00
aI00
aI00
aI00
aI00
aI00
aI01
aa(lp95
I01
aI01
aI01
aI01
aI01
aI01
aI01
aI01
aI01
aI01
aI01
aI01
aI01
aI01
aI01
aI01
aasg49
I16
sbsS'layoutText'
p96
(lp97
S'%%%%%%%%%%%%%%%%%%%%%%%%%%%%%%%%'
p98
aS'%   %. %.%.%       %     %.%.%4%'
p99
aS'% % %%       %%  %   %%%   %.%2%'
p100
aS'% % %. % %%%    %%%% .%..% % % %'
p101
aS'% % %% % ..% %   %   %%%%% % % %'
p102
aS'% %    %%%%% %%%   %%%.% o % % %'
p103
aS'% %% % ..%.  %.%%%       %   % %'
p104
aS'% %. %%.%%%%        %.%%%%  %% %'
p105
aS'% %%  %%%%.%        %%%%.%% .% %'
p106
aS'% %   %       %%%.%  .%.. % %% %'
p107
aS'% % % o %.%%%   %%% %%%%%    % %'
p108
aS'% % % %%%%%   %   % %.. % %% % %'
p109
aS'% % % %..%. %%%%    %%% % .% % %'
p110
aS'%1%.%   %%%   %  %%       %% % %'
p111
aS'%3%.%.%     %       %.%.% .%   %'
p112
aS'%%%%%%%%%%%%%%%%%%%%%%%%%%%%%%%%'
p113
asbsS'blueTeamName'
p114
S'TeamImpala'
p115
sS'actions'
p116
(lp117
(I0
S'Stop'
p118
tp119
a(I1
S'South'
p120
tp121
a(I2
g118
tp122
a(I3
g120
tp123
a(I0
g118
tp124
a(I1
g120
tp125
a(I2
S'North'
p126
tp127
a(I3
g120
tp128
a(I0
g118
tp129
a(I1
g120
tp130
a(I2
g126
tp131
a(I3
g120
tp132
a(I0
g118
tp133
a(I1
g120
tp134
a(I2
g126
tp135
a(I3
g120
tp136
a(I0
g118
tp137
a(I1
g120
tp138
a(I2
g118
tp139
a(I3
g120
tp140
a(I0
g126
tp141
a(I1
g120
tp142
a(I2
g126
tp143
a(I3
g120
tp144
a(I0
g120
tp145
a(I1
g120
tp146
a(I2
g126
tp147
a(I3
g120
tp148
a(I0
g120
tp149
a(I1
g120
tp150
a(I2
g126
tp151
a(I3
g120
tp152
a(I0
g126
tp153
a(I1
g120
tp154
a(I2
g126
tp155
a(I3
g120
tp156
a(I0
g126
tp157
a(I1
g120
tp158
a(I2
g118
tp159
a(I3
g120
tp160
a(I0
g118
tp161
a(I1
g120
tp162
a(I2
g120
tp163
a(I3
g120
tp164
a(I0
g118
tp165
a(I1
g120
tp166
a(I2
g126
tp167
a(I3
g120
tp168
a(I0
g118
tp169
a(I1
S'West'
p170
tp171
a(I2
g126
tp172
a(I3
g120
tp173
a(I0
g118
tp174
a(I1
g170
tp175
a(I2
g118
tp176
a(I3
g170
tp177
a(I0
g126
tp178
a(I1
g126
tp179
a(I2
g118
tp180
a(I3
g170
tp181
a(I0
g126
tp182
a(I1
g126
tp183
a(I2
g118
tp184
a(I3
g126
tp185
a(I0
g126
tp186
a(I1
g126
tp187
a(I2
g126
tp188
a(I3
g126
tp189
a(I0
g118
tp190
a(I1
g126
tp191
a(I2
g126
tp192
a(I3
g126
tp193
a(I0
g120
tp194
a(I1
g170
tp195
a(I2
g120
tp196
a(I3
g126
tp197
a(I0
g126
tp198
a(I1
g126
tp199
a(I2
g118
tp200
a(I3
g170
tp201
a(I0
g120
tp202
a(I1
g126
tp203
a(I2
g126
tp204
a(I3
g170
tp205
a(I0
g118
tp206
a(I1
g126
tp207
a(I2
g120
tp208
a(I3
g170
tp209
a(I0
g126
tp210
a(I1
g170
tp211
a(I2
g120
tp212
a(I3
g120
tp213
a(I0
g126
tp214
a(I1
g126
tp215
a(I2
g118
tp216
a(I3
g120
tp217
a(I0
g120
tp218
a(I1
g126
tp219
a(I2
g118
tp220
a(I3
g120
tp221
a(I0
g118
tp222
a(I1
g170
tp223
a(I2
g120
tp224
a(I3
g170
tp225
a(I0
g120
tp226
a(I1
g170
tp227
a(I2
g118
tp228
a(I3
g170
tp229
a(I0
g120
tp230
a(I1
g120
tp231
a(I2
g126
tp232
a(I3
g170
tp233
a(I0
g126
tp234
a(I1
g170
tp235
a(I2
g118
tp236
a(I3
g170
tp237
a(I0
g118
tp238
a(I1
g170
tp239
a(I2
g118
tp240
a(I3
g120
tp241
a(I0
g118
tp242
a(I1
g170
tp243
a(I2
g126
tp244
a(I3
g126
tp245
a(I0
g118
tp246
a(I1
g170
tp247
a(I2
g126
tp248
a(I3
g170
tp249
a(I0
g120
tp250
a(I1
g170
tp251
a(I2
g118
tp252
a(I3
g170
tp253
a(I0
g126
tp254
a(I1
g170
tp255
a(I2
g126
tp256
a(I3
g126
tp257
a(I0
g126
tp258
a(I1
g120
tp259
a(I2
g126
tp260
a(I3
g170
tp261
a(I0
g118
tp262
a(I1
g170
tp263
a(I2
g126
tp264
a(I3
g170
tp265
a(I0
g118
tp266
a(I1
g170
tp267
a(I2
g120
tp268
a(I3
g126
tp269
a(I0
g126
tp270
a(I1
g170
tp271
a(I2
g120
tp272
a(I3
g170
tp273
a(I0
g120
tp274
a(I1
g170
tp275
a(I2
g126
tp276
a(I3
g120
tp277
a(I0
g118
tp278
a(I1
g126
tp279
a(I2
g126
tp280
a(I3
g120
tp281
a(I0
g118
tp282
a(I1
g120
tp283
a(I2
g118
tp284
a(I3
g120
tp285
a(I0
g120
tp286
a(I1
g170
tp287
a(I2
S'East'
p288
tp289
a(I3
g288
tp290
a(I0
g126
tp291
a(I1
g170
tp292
a(I2
g288
tp293
a(I3
g288
tp294
a(I0
g126
tp295
a(I1
g126
tp296
a(I2
g120
tp297
a(I3
g288
tp298
a(I0
g118
tp299
a(I1
g170
tp300
a(I2
g120
tp301
a(I3
g126
tp302
a(I0
g118
tp303
a(I1
g170
tp304
a(I2
g120
tp305
a(I3
g288
tp306
a(I0
g118
tp307
a(I1
g288
tp308
a(I2
g126
tp309
a(I3
g288
tp310
a(I0
g118
tp311
a(I1
g288
tp312
a(I2
g126
tp313
a(I3
g120
tp314
a(I0
g126
tp315
a(I1
g120
tp316
a(I2
g120
tp317
a(I3
g126
tp318
a(I0
g120
tp319
a(I1
g120
tp320
a(I2
g118
tp321
a(I3
g170
tp322
a(I0
g126
tp323
a(I1
g120
tp324
a(I2
g126
tp325
a(I3
g170
tp326
a(I0
g118
tp327
a(I1
g170
tp328
a(I2
g126
tp329
a(I3
g126
tp330
a(I0
g118
tp331
a(I1
g170
tp332
a(I2
g170
tp333
a(I3
g170
tp334
a(I0
g120
tp335
a(I1
g126
tp336
a(I2
g170
tp337
a(I3
g170
tp338
a(I0
g120
tp339
a(I1
g120
tp340
a(I2
g120
tp341
a(I3
g170
tp342
a(I0
g120
tp343
a(I1
g170
tp344
a(I2
g126
tp345
a(I3
g120
tp346
a(I0
g118
tp347
a(I1
g120
tp348
a(I2
g288
tp349
a(I3
g120
tp350
a(I0
g126
tp351
a(I1
g126
tp352
a(I2
g170
tp353
a(I3
g288
tp354
a(I0
g126
tp355
a(I1
g170
tp356
a(I2
g288
tp357
a(I3
g288
tp358
a(I0
g120
tp359
a(I1
g170
tp360
a(I2
g288
tp361
a(I3
g288
tp362
a(I0
g120
tp363
a(I1
g120
tp364
a(I2
g170
tp365
a(I3
g126
tp366
a(I0
g126
tp367
a(I1
g170
tp368
a(I2
g288
tp369
a(I3
g288
tp370
a(I0
g126
tp371
a(I1
g170
tp372
a(I2
g170
tp373
a(I3
g288
tp374
a(I0
g120
tp375
a(I1
g120
tp376
a(I2
g288
tp377
a(I3
g288
tp378
a(I0
g126
tp379
a(I1
g120
tp380
a(I2
g118
tp381
a(I3
g288
tp382
a(I0
g118
tp383
a(I1
g120
tp384
a(I2
g120
tp385
a(I3
g126
tp386
a(I0
g126
tp387
a(I1
g120
tp388
a(I2
g120
tp389
a(I3
g126
tp390
a(I0
g118
tp391
a(I1
g126
tp392
a(I2
g120
tp393
a(I3
g170
tp394
a(I0
g118
tp395
a(I1
g288
tp396
a(I2
g126
tp397
a(I3
g170
tp398
a(I0
g118
tp399
a(I1
g288
tp400
a(I2
g118
tp401
a(I3
g288
tp402
a(I0
g118
tp403
a(I1
g126
tp404
a(I2
g118
tp405
a(I3
g288
tp406
a(I0
g118
tp407
a(I1
g288
tp408
a(I2
g118
tp409
a(I3
g120
tp410
a(I0
g118
tp411
a(I1
g170
tp412
a(I2
g120
tp413
a(I3
g120
tp414
a(I0
g126
tp415
a(I1
g120
tp416
a(I2
g126
tp417
a(I3
g120
tp418
a(I0
g118
tp419
a(I1
g120
tp420
a(I2
g120
tp421
a(I3
g126
tp422
a(I0
g126
tp423
a(I1
g288
tp424
a(I2
g118
tp425
a(I3
g170
tp426
a(I0
g126
tp427
a(I1
g288
tp428
a(I2
g120
tp429
a(I3
g170
tp430
a(I0
g120
tp431
a(I1
g288
tp432
a(I2
g118
tp433
a(I3
g120
tp434
a(I0
g118
tp435
a(I1
g288
tp436
a(I2
g118
tp437
a(I3
g126
tp438
a(I0
g126
tp439
a(I1
g126
tp440
a(I2
g126
tp441
a(I3
g170
tp442
a(I0
g120
tp443
a(I1
g126
tp444
a(I2
g126
tp445
a(I3
g170
tp446
a(I0
g118
tp447
a(I1
g170
tp448
a(I2
g118
tp449
a(I3
g126
tp450
a(I0
g120
tp451
a(I1
g288
tp452
a(I2
g120
tp453
a(I3
g126
tp454
a(I0
g120
tp455
a(I1
g126
tp456
a(I2
g118
tp457
a(I3
g126
tp458
a(I0
g118
tp459
a(I1
g288
tp460
a(I2
g118
tp461
a(I3
g126
tp462
a(I0
g126
tp463
a(I1
g288
tp464
a(I2
g126
tp465
a(I3
g126
tp466
a(I0
g126
tp467
a(I1
g126
tp468
a(I2
g120
tp469
a(I3
g170
tp470
a(I0
g118
tp471
a(I1
g126
tp472
a(I2
g120
tp473
a(I3
g126
tp474
a(I0
g120
tp475
a(I1
g170
tp476
a(I2
g288
tp477
a(I3
g288
tp478
a(I0
g120
tp479
a(I1
g126
tp480
a(I2
g118
tp481
a(I3
g120
tp482
a(I0
g126
tp483
a(I1
g126
tp484
a(I2
g170
tp485
a(I3
g120
tp486
a(I0
g118
tp487
a(I1
g126
tp488
a(I2
g126
tp489
a(I3
g120
tp490
a(I0
g118
tp491
a(I1
g126
tp492
a(I2
g118
tp493
a(I3
g120
tp494
a(I0
g126
tp495
a(I1
g126
tp496
a(I2
g118
tp497
a(I3
g120
tp498
a(I0
g120
tp499
a(I1
g126
tp500
a(I2
g120
tp501
a(I3
g170
tp502
a(I0
g120
tp503
a(I1
g126
tp504
a(I2
g288
tp505
a(I3
g170
tp506
a(I0
g126
tp507
a(I1
g170
tp508
a(I2
g288
tp509
a(I3
g170
tp510
a(I0
g120
tp511
a(I1
g170
tp512
a(I2
g288
tp513
a(I3
g120
tp514
a(I0
g120
tp515
a(I1
g126
tp516
a(I2
g118
tp517
a(I3
g120
tp518
a(I0
g126
tp519
a(I1
g120
tp520
a(I2
g118
tp521
a(I3
g288
tp522
a(I0
g126
tp523
a(I1
g170
tp524
a(I2
g170
tp525
a(I3
g288
tp526
a(I0
g118
tp527
a(I1
g170
tp528
a(I2
g170
tp529
a(I3
g288
tp530
a(I0
g120
tp531
a(I1
g126
tp532
a(I2
g170
tp533
a(I3
g126
tp534
a(I0
g126
tp535
a(I1
g120
tp536
a(I2
g126
tp537
a(I3
g126
tp538
a(I0
g118
tp539
a(I1
g120
tp540
a(I2
g126
tp541
a(I3
g170
tp542
a(I0
g120
tp543
a(I1
g120
tp544
a(I2
g118
tp545
a(I3
g170
tp546
a(I0
g126
tp547
a(I1
g288
tp548
a(I2
g120
tp549
a(I3
g170
tp550
a(I0
g126
tp551
a(I1
g288
tp552
a(I2
g126
tp553
a(I3
g120
tp554
a(I0
g126
tp555
a(I1
g170
tp556
a(I2
g118
tp557
a(I3
g120
tp558
a(I0
g118
tp559
a(I1
g170
tp560
a(I2
g126
tp561
a(I3
g288
tp562
a(I0
g120
tp563
a(I1
g126
tp564
a(I2
g126
tp565
a(I3
g288
tp566
a(I0
g126
tp567
a(I1
g126
tp568
a(I2
g118
tp569
a(I3
g288
tp570
a(I0
g118
tp571
a(I1
g170
tp572
a(I2
g170
tp573
a(I3
g126
tp574
a(I0
g120
tp575
a(I1
g170
tp576
a(I2
g118
tp577
a(I3
g126
tp578
a(I0
g126
tp579
a(I1
g120
tp580
a(I2
g118
tp581
a(I3
g170
tp582
a(I0
g126
tp583
a(I1
g170
tp584
a(I2
g288
tp585
a(I3
g170
tp586
a(I0
g118
tp587
a(I1
g288
tp588
a(I2
g170
tp589
a(I3
g126
tp590
a(I0
g120
tp591
a(I1
g126
tp592
a(I2
g170
tp593
a(I3
g170
tp594
a(I0
g120
tp595
a(I1
g126
tp596
a(I2
g118
tp597
a(I3
g120
tp598
a(I0
g118
tp599
a(I1
g170
tp600
a(I2
g118
tp601
a(I3
g120
tp602
a(I0
g126
tp603
a(I1
g288
tp604
a(I2
g120
tp605
a(I3
g120
tp606
a(I0
g120
tp607
a(I1
g120
tp608
a(I2
g126
tp609
a(I3
g288
tp610
a(I0
g126
tp611
a(I1
g120
tp612
a(I2
g288
tp613
a(I3
g288
tp614
a(I0
g118
tp615
a(I1
g120
tp616
a(I2
g170
tp617
a(I3
g288
tp618
a(I0
g126
tp619
a(I1
g120
tp620
a(I2
g118
tp621
a(I3
g126
tp622
a(I0
g120
tp623
a(I1
g120
tp624
a(I2
g120
tp625
a(I3
g126
tp626
a(I0
g118
tp627
a(I1
g288
tp628
a(I2
g118
tp629
a(I3
g126
tp630
a(I0
g118
tp631
a(I1
g120
tp632
a(I2
g120
tp633
a(I3
g126
tp634
a(I0
g120
tp635
a(I1
g126
tp636
a(I2
g118
tp637
a(I3
g126
tp638
a(I0
g126
tp639
a(I1
g288
tp640
a(I2
g120
tp641
a(I3
g288
tp642
a(I0
g120
tp643
a(I1
g170
tp644
a(I2
g126
tp645
a(I3
g288
tp646
a(I0
g118
tp647
a(I1
g170
tp648
a(I2
g120
tp649
a(I3
g170
tp650
a(I0
g118
tp651
a(I1
g126
tp652
a(I2
g126
tp653
a(I3
g170
tp654
a(I0
g118
tp655
a(I1
g170
tp656
a(I2
g126
tp657
a(I3
g120
tp658
a(I0
g126
tp659
a(I1
g170
tp660
a(I2
g120
tp661
a(I3
g120
tp662
a(I0
g126
tp663
a(I1
g120
tp664
a(I2
g120
tp665
a(I3
g120
tp666
a(I0
g118
tp667
a(I1
g120
tp668
a(I2
g118
tp669
a(I3
g170
tp670
a(I0
g126
tp671
a(I1
g170
tp672
asS'length'
p673
I1200
sS'agents'
p674
(lp675
(igame
Agent
p676
(dp677
S'index'
p678
I0
sba(igame
Agent
p679
(dp680
g678
I0
sba(igame
Agent
p681
(dp682
g678
I0
sba(igame
Agent
p683
(dp684
g678
I0
sbasS'redTeamName'
p685
S'TheGhostbusters'
p686
s.