(dp1
S'layout'
p2
(ilayout
Layout
p3
(dp4
S'capsules'
p5
(lp6
(I13
I3
tp7
a(I23
I5
tp8
a(I10
I12
tp9
a(I20
I14
tp10
asS'numGhosts'
p11
I4
sS'food'
p12
(igame
Grid
p13
(dp14
S'CELLS_PER_INT'
p15
I30
sS'width'
p16
I34
sS'data'
p17
(lp18
(lp19
I00
aI00
aI00
aI00
aI00
aI00
aI00
aI00
aI00
aI00
aI00
aI00
aI00
aI00
aI00
aI00
aI00
aI00
aa(lp20
I00
aI00
aI00
aI00
aI00
aI00
aI00
aI00
aI00
aI00
aI00
aI00
aI00
aI00
aI00
aI00
aI00
aI00
aa(lp21
I00
aI00
aI00
aI00
aI00
aI00
aI00
aI00
aI00
aI00
aI00
aI00
aI00
aI00
aI00
aI00
aI00
aI00
aa(lp22
I00
aI00
aI00
aI00
aI00
aI01
aI00
aI00
aI00
aI00
aI00
aI01
aI01
aI00
aI01
aI01
aI00
aI00
aa(lp23
I00
aI00
aI00
aI00
aI00
aI00
aI00
aI00
aI00
aI00
aI00
aI00
aI00
aI00
aI00
aI00
aI00
aI00
aa(lp24
I00
aI00
aI00
aI00
aI00
aI01
aI00
aI00
aI00
aI00
aI00
aI01
aI00
aI00
aI01
aI00
aI00
aI00
aa(lp25
I00
aI00
aI00
aI00
aI00
aI00
aI00
aI00
aI00
aI00
aI00
aI00
aI00
aI00
aI01
aI00
aI01
aI00
aa(lp26
I00
aI01
aI00
aI00
aI00
aI01
aI01
aI01
aI00
aI00
aI00
aI00
aI00
aI00
aI00
aI00
aI00
aI00
aa(lp27
I00
aI00
aI01
aI00
aI00
aI00
aI00
aI00
aI00
aI00
aI00
aI00
aI00
aI00
aI00
aI01
aI01
aI00
aa(lp28
I00
aI00
aI00
aI01
aI00
aI00
aI00
aI00
aI00
aI00
aI00
aI00
aI00
aI00
aI00
aI00
aI00
aI00
aa(lp29
I00
aI00
aI00
aI00
aI01
aI01
aI00
aI00
aI00
aI00
aI00
aI00
aI00
aI00
aI00
aI00
aI00
aI00
aa(lp30
I00
aI00
aI00
aI00
aI00
aI00
aI00
aI00
aI00
aI00
aI00
aI00
aI00
aI00
aI00
aI00
aI00
aI00
aa(lp31
I00
aI00
aI00
aI00
aI00
aI00
aI00
aI00
aI00
aI00
aI00
aI00
aI00
aI00
aI01
aI00
aI00
aI00
aa(lp32
I00
aI00
aI00
aI00
aI00
aI00
aI00
aI01
aI00
aI01
aI00
aI00
aI00
aI01
aI00
aI00
aI00
aI00
aa(lp33
I00
aI00
aI01
aI01
aI00
aI00
aI01
aI00
aI00
aI01
aI00
aI00
aI00
aI00
aI01
aI00
aI01
aI00
aa(lp34
I00
aI00
aI00
aI00
aI00
aI00
aI00
aI00
aI00
aI00
aI00
aI00
aI00
aI00
aI00
aI00
aI00
aI00
aa(lp35
I00
aI00
aI00
aI00
aI00
aI00
aI00
aI00
aI00
aI00
aI00
aI00
aI00
aI00
aI00
aI00
aI00
aI00
aa(lp36
I00
aI00
aI00
aI00
aI00
aI00
aI00
aI00
aI00
aI00
aI00
aI00
aI00
aI00
aI00
aI00
aI00
aI00
aa(lp37
I00
aI00
aI00
aI00
aI00
aI00
aI00
aI00
aI00
aI00
aI00
aI00
aI00
aI00
aI00
aI00
aI00
aI00
aa(lp38
I00
aI01
aI00
aI01
aI00
aI00
aI00
aI00
aI01
aI00
aI00
aI01
aI00
aI00
aI01
aI01
aI00
aI00
aa(lp39
I00
aI00
aI00
aI00
aI01
aI00
aI00
aI00
aI01
aI00
aI01
aI00
aI00
aI00
aI00
aI00
aI00
aI00
aa(lp40
I00
aI00
aI00
aI01
aI00
aI00
aI00
aI00
aI00
aI00
aI00
aI00
aI00
aI00
aI00
aI00
aI00
aI00
aa(lp41
I00
aI00
aI00
aI00
aI00
aI00
aI00
aI00
aI00
aI00
aI00
aI00
aI00
aI00
aI00
aI00
aI00
aI00
aa(lp42
I00
aI00
aI00
aI00
aI00
aI00
aI00
aI00
aI00
aI00
aI00
aI00
aI01
aI01
aI00
aI00
aI00
aI00
aa(lp43
I00
aI00
aI00
aI00
aI00
aI00
aI00
aI00
aI00
aI00
aI00
aI00
aI00
aI00
aI01
aI00
aI00
aI00
aa(lp44
I00
aI01
aI01
aI00
aI00
aI00
aI00
aI00
aI00
aI00
aI00
aI00
aI00
aI00
aI00
aI01
aI00
aI00
aa(lp45
I00
aI00
aI00
aI00
aI00
aI00
aI00
aI00
aI00
aI00
aI01
aI01
aI01
aI00
aI00
aI00
aI01
aI00
aa(lp46
I00
aI01
aI00
aI01
aI00
aI00
aI00
aI00
aI00
aI00
aI00
aI00
aI00
aI00
aI00
aI00
aI00
aI00
aa(lp47
I00
aI00
aI00
aI01
aI00
aI00
aI01
aI00
aI00
aI00
aI00
aI00
aI01
aI00
aI00
aI00
aI00
aI00
aa(lp48
I00
aI00
aI00
aI00
aI00
aI00
aI00
aI00
aI00
aI00
aI00
aI00
aI00
aI00
aI00
aI00
aI00
aI00
aa(lp49
I00
aI00
aI01
aI01
aI00
aI01
aI01
aI00
aI00
aI00
aI00
aI00
aI01
aI00
aI00
aI00
aI00
aI00
aa(lp50
I00
aI00
aI00
aI00
aI00
aI00
aI00
aI00
aI00
aI00
aI00
aI00
aI00
aI00
aI00
aI00
aI00
aI00
aa(lp51
I00
aI00
aI00
aI00
aI00
aI00
aI00
aI00
aI00
aI00
aI00
aI00
aI00
aI00
aI00
aI00
aI00
aI00
aa(lp52
I00
aI00
aI00
aI00
aI00
aI00
aI00
aI00
aI00
aI00
aI00
aI00
aI00
aI00
aI00
aI00
aI00
aI00
aasS'height'
p53
I18
sbsS'agentPositions'
p54
(lp55
(I00
(I1
I2
tp56
tp57
a(I00
(I32
I15
tp58
tp59
a(I00
(I1
I1
tp60
tp61
a(I00
(I32
I16
tp62
tp63
asg53
I18
sg16
I34
sS'walls'
p64
(igame
Grid
p65
(dp66
g15
I30
sg16
I34
sg17
(lp67
(lp68
I01
aI01
aI01
aI01
aI01
aI01
aI01
aI01
aI01
aI01
aI01
aI01
aI01
aI01
aI01
aI01
aI01
aI01
aa(lp69
I01
aI00
aI00
aI00
aI00
aI00
aI00
aI00
aI00
aI00
aI00
aI00
aI00
aI00
aI00
aI00
aI00
aI01
aa(lp70
I01
aI01
aI01
aI01
aI01
aI01
aI01
aI01
aI01
aI01
aI01
aI01
aI01
aI01
aI01
aI01
aI00
aI01
aa(lp71
I01
aI00
aI01
aI00
aI01
aI00
aI00
aI00
aI00
aI00
aI00
aI00
aI00
aI01
aI00
aI00
aI00
aI01
aa(lp72
I01
aI00
aI01
aI00
aI01
aI01
aI00
aI01
aI01
aI00
aI01
aI00
aI00
aI01
aI01
aI01
aI00
aI01
aa(lp73
I01
aI00
aI00
aI00
aI00
aI00
aI00
aI00
aI00
aI00
aI01
aI00
aI00
aI00
aI00
aI00
aI00
aI01
aa(lp74
I01
aI00
aI01
aI01
aI01
aI01
aI00
aI01
aI01
aI00
aI00
aI00
aI00
aI01
aI00
aI01
aI00
aI01
aa(lp75
I01
aI00
aI00
aI00
aI00
aI00
aI00
aI00
aI01
aI01
aI01
aI01
aI00
aI01
aI01
aI01
aI01
aI01
aa(lp76
I01
aI01
aI00
aI01
aI01
aI01
aI01
aI01
aI01
aI00
aI00
aI00
aI00
aI00
aI00
aI00
aI00
aI01
aa(lp77
I01
aI00
aI00
aI00
aI01
aI00
aI00
aI00
aI01
aI00
aI01
aI01
aI01
aI01
aI00
aI01
aI01
aI01
aa(lp78
I01
aI00
aI01
aI00
aI00
aI00
aI01
aI00
aI01
aI00
aI01
aI00
aI00
aI01
aI00
aI00
aI00
aI01
aa(lp79
I01
aI00
aI01
aI00
aI01
aI00
aI00
aI00
aI01
aI00
aI01
aI00
aI00
aI01
aI01
aI01
aI00
aI01
aa(lp80
I01
aI00
aI00
aI00
aI01
aI01
aI00
aI01
aI01
aI00
aI01
aI00
aI01
aI01
aI00
aI01
aI00
aI01
aa(lp81
I01
aI00
aI01
aI00
aI00
aI00
aI00
aI00
aI01
aI00
aI01
aI00
aI00
aI00
aI00
aI00
aI00
aI01
aa(lp82
I01
aI00
aI00
aI00
aI00
aI00
aI00
aI00
aI01
aI00
aI01
aI00
aI00
aI01
aI00
aI01
aI00
aI01
aa(lp83
I01
aI01
aI00
aI01
aI00
aI01
aI01
aI01
aI01
aI01
aI01
aI00
aI01
aI01
aI01
aI01
aI01
aI01
aa(lp84
I01
aI00
aI00
aI00
aI00
aI00
aI00
aI00
aI00
aI00
aI00
aI00
aI00
aI00
aI00
aI00
aI00
aI01
aa(lp85
I01
aI00
aI00
aI00
aI00
aI00
aI00
aI00
aI00
aI00
aI00
aI00
aI00
aI00
aI00
aI00
aI00
aI01
aa(lp86
I01
aI01
aI01
aI01
aI01
aI01
aI00
aI01
aI01
aI01
aI01
aI01
aI01
aI00
aI01
aI00
aI01
aI01
aa(lp87
I01
aI00
aI01
aI00
aI01
aI00
aI00
aI01
aI00
aI01
aI00
aI00
aI00
aI00
aI00
aI00
aI00
aI01
aa(lp88
I01
aI00
aI00
aI00
aI00
aI00
aI00
aI01
aI00
aI01
aI00
aI00
aI00
aI00
aI00
aI01
aI00
aI01
aa(lp89
I01
aI00
aI01
aI00
aI01
aI01
aI00
aI01
aI00
aI01
aI01
aI00
aI01
aI01
aI00
aI00
aI00
aI01
aa(lp90
I01
aI00
aI01
aI01
aI01
aI00
aI00
aI01
aI00
aI01
aI00
aI00
aI00
aI01
aI00
aI01
aI00
aI01
aa(lp91
I01
aI00
aI00
aI00
aI01
aI00
aI00
aI01
aI00
aI01
aI00
aI01
aI00
aI00
aI00
aI01
aI00
aI01
aa(lp92
I01
aI01
aI01
aI00
aI01
aI01
aI01
aI01
aI00
aI01
aI00
aI00
aI00
aI01
aI00
aI00
aI00
aI01
aa(lp93
I01
aI00
aI00
aI00
aI00
aI00
aI00
aI00
aI00
aI01
aI01
aI01
aI01
aI01
aI01
aI00
aI01
aI01
aa(lp94
I01
aI01
aI01
aI01
aI01
aI00
aI01
aI01
aI01
aI01
aI00
aI00
aI00
aI00
aI00
aI00
aI00
aI01
aa(lp95
I01
aI00
aI01
aI00
aI01
aI00
aI00
aI00
aI00
aI01
aI01
aI00
aI01
aI01
aI01
aI01
aI00
aI01
aa(lp96
I01
aI00
aI00
aI00
aI00
aI00
aI00
aI01
aI00
aI00
aI00
aI00
aI00
aI00
aI00
aI00
aI00
aI01
aa(lp97
I01
aI00
aI01
aI01
aI01
aI00
aI00
aI01
aI00
aI01
aI01
aI00
aI01
aI01
aI00
aI01
aI00
aI01
aa(lp98
I01
aI00
aI00
aI00
aI01
aI00
aI00
aI00
aI00
aI00
aI00
aI00
aI00
aI01
aI00
aI01
aI00
aI01
aa(lp99
I01
aI00
aI01
aI01
aI01
aI01
aI01
aI01
aI01
aI01
aI01
aI01
aI01
aI01
aI01
aI01
aI01
aI01
aa(lp100
I01
aI00
aI00
aI00
aI00
aI00
aI00
aI00
aI00
aI00
aI00
aI00
aI00
aI00
aI00
aI00
aI00
aI01
aa(lp101
I01
aI01
aI01
aI01
aI01
aI01
aI01
aI01
aI01
aI01
aI01
aI01
aI01
aI01
aI01
aI01
aI01
aI01
aasg53
I18
sbsS'layoutText'
p102
(lp103
S'%%%%%%%%%%%%%%%%%%%%%%%%%%%%%%%%%%'
p104
aS'%     .%.%    .%  %      %.    %4%'
p105
aS'% %.% %%.% %% %%   .% %% . % %%%2%'
p106
aS'% %.%..%   %. .%  %.o   .% %   % %'
p107
aS'% %%% %% %%%%.%%     %%.%% % %%% %'
p108
aS'% %.     %o %  %  %  % . %.%.%.% %'
p109
aS'% %. . % %        %.   % %.    % %'
p110
aS'% % %% % %%%%%%%  % .%   %.% % % %'
p111
aS'% %    %     ..%  %%%%%%%%%% % % %'
p112
aS'% % % %%%%%%%%%%  %..     %    % %'
p113
aS'% % % %.%   %. %  %%%%%%% % %% % %'
p114
aS'% %    .% %   .%        % % . .% %'
p115
aS'% %.%.%.% . %  %  %  % o%     .% %'
p116
aS'% %%% % %%.%%     %%.%%%% %% %%% %'
p117
aS'% %   % %.   o.%  %. .%   %..%.% %'
p118
aS'%1%%% % . %% %.   %% %% %.%% %.% %'
p119
aS'%3%    .%      %  %.    %.%.     %'
p120
aS'%%%%%%%%%%%%%%%%%%%%%%%%%%%%%%%%%%'
p121
asbsS'blueTeamName'
p122
S'TeamImpala'
p123
sS'actions'
p124
(lp125
(I1
S'South'
p126
tp127
a(I2
S'North'
p128
tp129
a(I3
g126
tp130
a(I0
g128
tp131
a(I1
g126
tp132
a(I2
g128
tp133
a(I3
g126
tp134
a(I0
g128
tp135
a(I1
g126
tp136
a(I2
g128
tp137
a(I3
g126
tp138
a(I0
g128
tp139
a(I1
g126
tp140
a(I2
g128
tp141
a(I3
g126
tp142
a(I0
g128
tp143
a(I1
g126
tp144
a(I2
g128
tp145
a(I3
g126
tp146
a(I0
g128
tp147
a(I1
g126
tp148
a(I2
g128
tp149
a(I3
g126
tp150
a(I0
g128
tp151
a(I1
g126
tp152
a(I2
g128
tp153
a(I3
g126
tp154
a(I0
g128
tp155
a(I1
g126
tp156
a(I2
g128
tp157
a(I3
g126
tp158
a(I0
g128
tp159
a(I1
g126
tp160
a(I2
g128
tp161
a(I3
g126
tp162
a(I0
g128
tp163
a(I1
g126
tp164
a(I2
g128
tp165
a(I3
g126
tp166
a(I0
g128
tp167
a(I1
g126
tp168
a(I2
g128
tp169
a(I3
g126
tp170
a(I0
g128
tp171
a(I1
g126
tp172
a(I2
g128
tp173
a(I3
g126
tp174
a(I0
g128
tp175
a(I1
g126
tp176
a(I2
g128
tp177
a(I3
g126
tp178
a(I0
g128
tp179
a(I1
g126
tp180
a(I2
g128
tp181
a(I3
g126
tp182
a(I0
g128
tp183
a(I1
S'West'
p184
tp185
a(I2
g128
tp186
a(I3
g126
tp187
a(I0
S'East'
p188
tp189
a(I1
g184
tp190
a(I2
g188
tp191
a(I3
g184
tp192
a(I0
g188
tp193
a(I1
g184
tp194
a(I2
g188
tp195
a(I3
g184
tp196
a(I0
g188
tp197
a(I1
g184
tp198
a(I2
g188
tp199
a(I3
g128
tp200
a(I0
g188
tp201
a(I1
g128
tp202
a(I2
g188
tp203
a(I3
g128
tp204
a(I0
g126
tp205
a(I1
g128
tp206
a(I2
g126
tp207
a(I3
g126
tp208
a(I0
g126
tp209
a(I1
g128
tp210
a(I2
g126
tp211
a(I3
g126
tp212
a(I0
g126
tp213
a(I1
g128
tp214
a(I2
g126
tp215
a(I3
g184
tp216
a(I0
g126
tp217
a(I1
g184
tp218
a(I2
g126
tp219
a(I3
g184
tp220
a(I0
g188
tp221
a(I1
g184
tp222
a(I2
g188
tp223
a(I3
g128
tp224
a(I0
g188
tp225
a(I1
g184
tp226
a(I2
g126
tp227
a(I3
g128
tp228
a(I0
g188
tp229
a(I1
g126
tp230
a(I2
g184
tp231
a(I3
g184
tp232
a(I0
g128
tp233
a(I1
g126
tp234
a(I2
g128
tp235
a(I3
g188
tp236
a(I0
g128
tp237
a(I1
g184
tp238
a(I2
g128
tp239
a(I3
g128
tp240
a(I0
g188
tp241
a(I1
g184
tp242
a(I2
g128
tp243
a(I3
g128
tp244
a(I0
g188
tp245
a(I1
g126
tp246
a(I2
g128
tp247
a(I3
g184
tp248
a(I0
g128
tp249
a(I1
g126
tp250
a(I2
g128
tp251
a(I3
g184
tp252
a(I0
g128
tp253
a(I1
g184
tp254
a(I2
g188
tp255
a(I3
g184
tp256
a(I0
g188
tp257
a(I1
g184
tp258
a(I2
g184
tp259
a(I3
g128
tp260
a(I0
g188
tp261
a(I1
g184
tp262
a(I2
g184
tp263
a(I3
g128
tp264
a(I0
g188
tp265
a(I1
g128
tp266
a(I2
g184
tp267
a(I3
g128
tp268
a(I0
g126
tp269
a(I1
g128
tp270
a(I2
g126
tp271
a(I3
g184
tp272
a(I0
g126
tp273
a(I1
g128
tp274
a(I2
g126
tp275
a(I3
g184
tp276
a(I0
g126
tp277
a(I1
g128
tp278
a(I2
g128
tp279
a(I3
g184
tp280
a(I0
g126
tp281
a(I1
g128
tp282
a(I2
g128
tp283
a(I3
g184
tp284
a(I0
g126
tp285
a(I1
g184
tp286
a(I2
g184
tp287
a(I3
g184
tp288
a(I0
g188
tp289
a(I1
g184
tp290
a(I2
g184
tp291
a(I3
g184
tp292
a(I0
g188
tp293
a(I1
g184
tp294
a(I2
g126
tp295
a(I3
g188
tp296
a(I0
g188
tp297
a(I1
g184
tp298
a(I2
g128
tp299
a(I3
g188
tp300
a(I0
g188
tp301
a(I1
g126
tp302
a(I2
g188
tp303
a(I3
g188
tp304
a(I0
g128
tp305
a(I1
g126
tp306
a(I2
g188
tp307
a(I3
g188
tp308
a(I0
g128
tp309
a(I1
g184
tp310
a(I2
g188
tp311
a(I3
g188
tp312
a(I0
g188
tp313
a(I1
g184
tp314
a(I2
g188
tp315
a(I3
g188
tp316
a(I0
g188
tp317
a(I1
g126
tp318
a(I2
g126
tp319
a(I3
g126
tp320
a(I0
g128
tp321
a(I1
g126
tp322
a(I2
g126
tp323
a(I3
g126
tp324
a(I0
g128
tp325
a(I1
g128
tp326
a(I2
g126
tp327
a(I3
g126
tp328
a(I0
g126
tp329
a(I1
g128
tp330
a(I2
g126
tp331
a(I3
g188
tp332
a(I0
g126
tp333
a(I1
g128
tp334
a(I2
g126
tp335
a(I3
g188
tp336
a(I0
g126
tp337
a(I1
g128
tp338
a(I2
g188
tp339
a(I3
g188
tp340
a(I0
g126
tp341
a(I1
g184
tp342
a(I2
g126
tp343
a(I3
g128
tp344
a(I0
g188
tp345
a(I1
g128
tp346
a(I2
g126
tp347
a(I3
g184
tp348
a(I0
g126
tp349
a(I1
g126
tp350
a(I2
g184
tp351
a(I3
g128
tp352
a(I0
g128
tp353
a(I1
g184
tp354
a(I2
g184
tp355
a(I3
g128
tp356
a(I0
g188
tp357
a(I1
g184
tp358
a(I2
g184
tp359
a(I3
g188
tp360
a(I0
g188
tp361
a(I1
g126
tp362
a(I2
g128
tp363
a(I3
g188
tp364
a(I0
g128
tp365
a(I1
g184
tp366
a(I2
g128
tp367
a(I3
g188
tp368
a(I0
g188
tp369
a(I1
g126
tp370
a(I2
g128
tp371
a(I3
g128
tp372
a(I0
g128
tp373
a(I1
g126
tp374
a(I2
g188
tp375
a(I3
g128
tp376
a(I0
g128
tp377
a(I1
g184
tp378
a(I2
g126
tp379
a(I3
g128
tp380
a(I0
g188
tp381
a(I1
g126
tp382
a(I2
g188
tp383
a(I3
g128
tp384
a(I0
g128
tp385
a(I1
g184
tp386
a(I2
g188
tp387
a(I3
g126
tp388
a(I0
g188
tp389
a(I1
g184
tp390
a(I2
g128
tp391
a(I3
g126
tp392
a(I0
g188
tp393
a(I1
g126
tp394
a(I2
g184
tp395
a(I3
g126
tp396
a(I0
g128
tp397
a(I1
g128
tp398
a(I2
g128
tp399
a(I3
g126
tp400
a(I0
g126
tp401
a(I1
g128
tp402
a(I2
g128
tp403
a(I3
g126
tp404
a(I0
g126
tp405
a(I1
g128
tp406
a(I2
g188
tp407
a(I3
g126
tp408
a(I0
g126
tp409
a(I1
g128
tp410
a(I2
g184
tp411
a(I3
g126
tp412
a(I0
g126
tp413
a(I1
g128
tp414
a(I2
g128
tp415
a(I3
g184
tp416
a(I0
g126
tp417
a(I1
g128
tp418
a(I2
g128
tp419
a(I3
g128
tp420
a(I0
g126
tp421
a(I1
g126
tp422
a(I2
g188
tp423
a(I3
g188
tp424
a(I0
g128
tp425
a(I1
g184
tp426
a(I2
g184
tp427
a(I3
g128
tp428
a(I0
g188
tp429
a(I1
g184
tp430
a(I2
g126
tp431
a(I3
g128
tp432
a(I0
g188
tp433
a(I1
g126
tp434
a(I2
g126
tp435
a(I3
g184
tp436
a(I0
g128
tp437
a(I1
g128
tp438
a(I2
g126
tp439
a(I3
g184
tp440
a(I0
g126
tp441
a(I1
g184
tp442
a(I2
g126
tp443
a(I3
g128
tp444
a(I0
g188
tp445
a(I1
g184
tp446
a(I2
g126
tp447
a(I3
g128
tp448
a(I0
g188
tp449
a(I1
g126
tp450
a(I2
g184
tp451
a(I3
g128
tp452
a(I0
g128
tp453
a(I1
g128
tp454
a(I2
g184
tp455
a(I3
g188
tp456
a(I0
g126
tp457
a(I1
g128
tp458
a(I2
g126
tp459
a(I3
g188
tp460
a(I0
g128
tp461
a(I1
g128
tp462
a(I2
g126
tp463
a(I3
g126
tp464
a(I0
g128
tp465
a(I1
S'Stop'
p466
tp467
a(I2
g126
tp468
a(I3
g126
tp469
a(I0
g128
tp470
a(I1
g126
tp471
a(I2
g126
tp472
a(I3
g126
tp473
a(I0
g128
tp474
a(I1
g126
tp475
a(I2
g126
tp476
a(I3
g184
tp477
a(I0
g128
tp478
a(I1
g126
tp479
a(I2
g188
tp480
a(I3
g184
tp481
a(I0
g128
tp482
a(I1
g126
tp483
a(I2
g188
tp484
a(I3
g184
tp485
a(I0
g128
tp486
a(I1
g126
tp487
a(I2
g128
tp488
a(I3
g126
tp489
a(I0
g128
tp490
a(I1
g126
tp491
a(I2
g128
tp492
a(I3
g126
tp493
a(I0
g128
tp494
a(I1
g126
tp495
a(I2
g128
tp496
a(I3
g188
tp497
a(I0
g128
tp498
a(I1
g126
tp499
a(I2
g188
tp500
a(I3
g188
tp501
a(I0
g128
tp502
a(I1
g126
tp503
a(I2
g128
tp504
a(I3
g126
tp505
a(I0
g128
tp506
a(I1
g126
tp507
a(I2
g128
tp508
a(I3
g184
tp509
a(I0
g128
tp510
a(I1
g126
tp511
a(I2
g128
tp512
a(I3
g184
tp513
a(I0
g128
tp514
a(I1
g126
tp515
a(I2
g184
tp516
a(I3
g184
tp517
a(I0
g188
tp518
a(I1
g126
tp519
a(I2
g128
tp520
a(I3
g184
tp521
a(I0
g188
tp522
a(I1
g126
tp523
a(I2
g128
tp524
a(I3
g128
tp525
a(I0
g188
tp526
a(I1
g184
tp527
a(I2
g128
tp528
a(I3
g128
tp529
a(I0
g188
tp530
a(I1
g184
tp531
a(I2
g128
tp532
a(I3
g128
tp533
a(I0
g126
tp534
a(I1
g184
tp535
a(I2
g188
tp536
a(I3
g184
tp537
a(I0
g126
tp538
a(I1
g184
tp539
a(I2
g184
tp540
a(I3
g184
tp541
a(I0
g126
tp542
a(I1
g128
tp543
a(I2
g184
tp544
a(I3
g184
tp545
a(I0
g126
tp546
a(I1
g128
tp547
a(I2
g184
tp548
a(I3
g184
tp549
a(I0
g188
tp550
a(I1
g128
tp551
a(I2
g126
tp552
a(I3
g184
tp553
a(I0
g188
tp554
a(I1
g128
tp555
a(I2
g126
tp556
a(I3
g184
tp557
a(I0
g188
tp558
a(I1
g184
tp559
a(I2
g128
tp560
a(I3
g188
tp561
a(I0
g128
tp562
a(I1
g184
tp563
a(I2
g128
tp564
a(I3
g188
tp565
a(I0
g128
tp566
a(I1
g184
tp567
a(I2
g184
tp568
a(I3
g188
tp569
a(I0
g188
tp570
a(I1
g126
tp571
a(I2
g184
tp572
a(I3
g188
tp573
a(I0
g188
tp574
a(I1
g126
tp575
a(I2
g126
tp576
a(I3
g188
tp577
a(I0
g128
tp578
a(I1
g184
tp579
a(I2
g126
tp580
a(I3
g188
tp581
a(I0
g128
tp582
a(I1
g184
tp583
a(I2
g126
tp584
a(I3
g126
tp585
a(I0
g188
tp586
a(I1
g126
tp587
a(I2
g126
tp588
a(I3
g126
tp589
a(I0
g188
tp590
a(I1
g126
tp591
a(I2
g126
tp592
a(I3
g126
tp593
a(I0
g188
tp594
a(I1
g184
tp595
a(I2
g126
tp596
a(I3
g126
tp597
a(I0
g126
tp598
a(I1
g184
tp599
a(I2
g126
tp600
a(I3
g126
tp601
a(I0
g126
tp602
a(I1
g184
tp603
a(I2
g126
tp604
a(I3
g184
tp605
a(I0
g126
tp606
a(I1
g128
tp607
a(I2
g126
tp608
a(I3
g184
tp609
a(I0
g126
tp610
a(I1
g128
tp611
a(I2
g126
tp612
a(I3
g126
tp613
a(I0
g188
tp614
a(I1
g128
tp615
a(I2
g126
tp616
a(I3
g126
tp617
a(I0
g126
tp618
a(I1
g128
tp619
a(I2
g126
tp620
a(I3
g184
tp621
a(I0
g188
tp622
a(I1
g184
tp623
a(I2
g126
tp624
a(I3
g184
tp625
a(I0
g188
tp626
a(I1
g128
tp627
a(I2
g126
tp628
a(I3
g184
tp629
a(I0
g188
tp630
a(I1
g184
tp631
a(I2
g126
tp632
a(I3
g128
tp633
a(I0
g126
tp634
a(I1
g184
tp635
a(I2
g128
tp636
a(I3
g128
tp637
a(I0
g126
tp638
a(I1
g128
tp639
a(I2
g128
tp640
a(I3
g128
tp641
a(I0
g126
tp642
a(I1
g184
tp643
a(I2
g128
tp644
a(I3
g128
tp645
a(I0
g126
tp646
a(I1
g128
tp647
a(I2
g128
tp648
a(I3
g128
tp649
a(I0
g126
tp650
a(I1
g128
tp651
a(I2
g128
tp652
a(I3
g184
tp653
a(I0
g188
tp654
a(I1
g128
tp655
a(I2
g128
tp656
a(I3
g184
tp657
a(I0
g128
tp658
a(I1
g128
tp659
a(I2
g128
tp660
a(I3
g184
tp661
a(I0
g128
tp662
a(I1
g184
tp663
a(I2
g128
tp664
a(I3
g128
tp665
a(I0
g128
tp666
a(I1
g184
tp667
a(I2
g128
tp668
a(I3
g128
tp669
a(I0
g128
tp670
a(I1
g128
tp671
a(I2
g128
tp672
a(I3
g128
tp673
a(I0
g128
tp674
a(I1
g184
tp675
a(I2
g128
tp676
a(I3
g128
tp677
a(I0
g128
tp678
a(I1
g128
tp679
a(I2
g128
tp680
a(I3
g128
tp681
a(I0
g128
tp682
a(I1
g128
tp683
a(I2
g128
tp684
a(I3
g128
tp685
a(I0
g128
tp686
a(I1
g184
tp687
a(I2
g128
tp688
a(I3
g128
tp689
a(I0
g128
tp690
a(I1
g188
tp691
a(I2
g128
tp692
a(I3
g188
tp693
a(I0
g128
tp694
a(I1
g188
tp695
a(I2
g188
tp696
a(I3
g188
tp697
a(I0
g128
tp698
a(I1
g184
tp699
a(I2
g188
tp700
a(I3
g128
tp701
a(I0
g128
tp702
a(I1
g128
tp703
a(I2
g126
tp704
a(I3
g128
tp705
a(I0
g128
tp706
a(I1
g128
tp707
a(I2
g126
tp708
a(I3
g128
tp709
a(I0
g128
tp710
a(I1
g188
tp711
a(I2
g128
tp712
a(I3
g188
tp713
a(I0
g188
tp714
a(I1
g184
tp715
a(I2
g128
tp716
a(I3
g188
tp717
a(I0
g188
tp718
a(I1
g184
tp719
a(I2
g188
tp720
a(I3
g188
tp721
a(I0
g188
tp722
a(I1
g184
tp723
a(I2
g188
tp724
a(I3
g188
tp725
a(I0
g188
tp726
a(I1
g184
tp727
a(I2
g126
tp728
a(I3
g188
tp729
a(I0
g126
tp730
a(I1
g126
tp731
a(I2
g126
tp732
a(I3
g126
tp733
a(I0
g126
tp734
a(I1
g126
tp735
a(I2
g126
tp736
a(I3
g188
tp737
a(I0
g126
tp738
a(I1
g184
tp739
a(I2
g126
tp740
a(I3
g188
tp741
a(I0
g126
tp742
a(I1
g184
tp743
a(I2
g188
tp744
a(I3
g128
tp745
a(I0
g188
tp746
a(I1
g128
tp747
a(I2
g188
tp748
a(I3
g188
tp749
a(I0
g188
tp750
a(I1
g128
tp751
a(I2
g188
tp752
a(I3
g188
tp753
a(I0
g188
tp754
a(I1
g126
tp755
a(I2
g128
tp756
a(I3
g126
tp757
a(I0
g128
tp758
a(I1
g126
tp759
a(I2
g128
tp760
a(I3
g126
tp761
a(I0
g128
tp762
a(I1
g126
tp763
a(I2
g188
tp764
a(I3
g188
tp765
a(I0
g188
tp766
a(I1
g126
tp767
a(I2
g188
tp768
a(I3
g188
tp769
a(I0
g188
tp770
a(I1
g126
tp771
a(I2
g128
tp772
a(I3
g184
tp773
a(I0
g128
tp774
a(I1
g126
tp775
a(I2
g128
tp776
a(I3
g184
tp777
a(I0
g128
tp778
a(I1
g126
tp779
a(I2
g188
tp780
a(I3
g126
tp781
a(I0
g188
tp782
a(I1
g126
tp783
a(I2
g188
tp784
a(I3
g126
tp785
a(I0
g188
tp786
a(I1
g126
tp787
a(I2
g188
tp788
a(I3
g126
tp789
a(I0
g188
tp790
a(I1
g126
tp791
a(I2
g188
tp792
a(I3
g126
tp793
a(I0
g126
tp794
a(I1
g126
tp795
a(I2
g184
tp796
a(I3
g126
tp797
a(I0
g126
tp798
a(I1
g126
tp799
a(I2
g126
tp800
a(I3
g126
tp801
a(I0
g126
tp802
a(I1
g126
tp803
a(I2
g126
tp804
a(I3
g184
tp805
a(I0
g126
tp806
a(I1
g126
tp807
a(I2
g126
tp808
a(I3
g126
tp809
a(I0
g188
tp810
a(I1
g126
tp811
a(I2
g126
tp812
a(I3
g126
tp813
a(I0
g126
tp814
a(I1
g126
tp815
a(I2
g126
tp816
a(I3
g126
tp817
a(I0
g188
tp818
a(I1
g184
tp819
a(I2
g188
tp820
a(I3
g188
tp821
a(I0
g188
tp822
a(I1
g184
tp823
a(I2
g188
tp824
a(I3
g128
tp825
a(I0
g188
tp826
a(I1
g184
tp827
a(I2
g188
tp828
a(I3
g184
tp829
a(I0
g126
tp830
a(I1
g184
tp831
a(I2
g128
tp832
a(I3
g126
tp833
a(I0
g126
tp834
a(I1
g128
tp835
a(I2
g128
tp836
a(I3
g184
tp837
a(I0
g126
tp838
a(I1
g128
tp839
a(I2
g128
tp840
a(I3
g184
tp841
a(I0
g126
tp842
a(I1
g128
tp843
a(I2
g128
tp844
a(I3
g126
tp845
a(I0
g126
tp846
a(I1
g128
tp847
a(I2
g128
tp848
a(I3
g126
tp849
a(I0
g188
tp850
a(I1
g184
tp851
a(I2
g126
tp852
a(I3
g184
tp853
a(I0
g188
tp854
a(I1
g184
tp855
a(I2
g126
tp856
a(I3
g184
tp857
a(I0
g126
tp858
a(I1
g184
tp859
a(I2
g126
tp860
a(I3
g126
tp861
a(I0
g188
tp862
a(I1
g126
tp863
a(I2
g126
tp864
a(I3
g126
tp865
a(I0
g126
tp866
a(I1
g126
tp867
a(I2
g126
tp868
a(I3
g184
tp869
a(I0
g126
tp870
a(I1
g184
tp871
a(I2
g184
tp872
a(I3
g184
tp873
a(I0
g188
tp874
a(I1
g184
tp875
a(I2
g184
tp876
a(I3
g184
tp877
a(I0
g184
tp878
a(I1
g126
tp879
a(I2
g184
tp880
a(I3
g128
tp881
a(I0
g184
tp882
a(I1
g126
tp883
a(I2
g128
tp884
a(I3
g128
tp885
a(I0
g466
tp886
a(I1
g184
tp887
a(I2
g128
tp888
a(I3
g184
tp889
a(I0
g128
tp890
a(I1
g184
tp891
a(I2
g128
tp892
a(I3
g188
tp893
a(I0
g128
tp894
a(I1
g184
tp895
a(I2
g184
tp896
a(I3
g126
tp897
a(I0
g128
tp898
a(I1
g128
tp899
a(I2
g188
tp900
a(I3
g126
tp901
a(I0
g128
tp902
a(I1
g128
tp903
a(I2
g126
tp904
a(I3
g188
tp905
a(I0
g128
tp906
a(I1
g128
tp907
a(I2
g126
tp908
a(I3
g188
tp909
a(I0
g128
tp910
a(I1
g128
tp911
a(I2
g188
tp912
a(I3
g188
tp913
a(I0
g128
tp914
a(I1
g184
tp915
a(I2
g126
tp916
a(I3
g128
tp917
a(I0
g128
tp918
a(I1
g128
tp919
a(I2
g184
tp920
a(I3
g128
tp921
a(I0
g128
tp922
a(I1
g184
tp923
a(I2
g184
tp924
a(I3
g188
tp925
a(I0
g128
tp926
a(I1
g184
tp927
a(I2
g184
tp928
a(I3
g188
tp929
a(I0
g128
tp930
a(I1
g126
tp931
a(I2
g184
tp932
a(I3
g128
tp933
a(I0
g128
tp934
a(I1
g184
tp935
a(I2
g128
tp936
a(I3
g128
tp937
a(I0
g128
tp938
a(I1
g126
tp939
a(I2
g188
tp940
a(I3
g128
tp941
a(I0
g128
tp942
a(I1
g184
tp943
a(I2
g126
tp944
a(I3
g128
tp945
a(I0
g188
tp946
a(I1
g184
tp947
a(I2
g184
tp948
a(I3
g128
tp949
a(I0
g188
tp950
a(I1
g184
tp951
a(I2
g128
tp952
a(I3
g184
tp953
a(I0
g188
tp954
a(I1
g126
tp955
a(I2
g188
tp956
a(I3
g184
tp957
a(I0
g188
tp958
a(I1
g184
tp959
a(I2
g126
tp960
a(I3
g184
tp961
a(I0
g126
tp962
a(I1
g184
tp963
a(I2
g188
tp964
a(I3
g184
tp965
a(I0
g126
tp966
a(I1
g184
tp967
a(I2
g188
tp968
a(I3
g184
tp969
a(I0
g126
tp970
a(I1
g184
tp971
a(I2
g128
tp972
a(I3
g184
tp973
a(I0
g126
tp974
a(I1
g126
tp975
a(I2
g188
tp976
a(I3
g188
tp977
a(I0
g188
tp978
a(I1
g184
tp979
a(I2
g126
tp980
a(I3
g188
tp981
a(I0
g188
tp982
a(I1
g184
tp983
a(I2
g184
tp984
a(I3
g188
tp985
a(I0
g188
tp986
a(I1
g128
tp987
a(I2
g184
tp988
a(I3
g188
tp989
a(I0
g128
tp990
a(I1
g128
tp991
a(I2
g184
tp992
a(I3
g188
tp993
a(I0
g128
tp994
a(I1
g128
tp995
a(I2
g184
tp996
a(I3
g188
tp997
a(I0
g188
tp998
a(I1
g128
tp999
a(I2
g128
tp1000
a(I3
g126
tp1001
a(I0
g188
tp1002
a(I1
g184
tp1003
a(I2
g188
tp1004
a(I3
g126
tp1005
a(I0
g128
tp1006
a(I1
g184
tp1007
a(I2
g126
tp1008
a(I3
g126
tp1009
a(I0
g128
tp1010
a(I1
g128
tp1011
a(I2
g188
tp1012
a(I3
g188
tp1013
a(I0
g188
tp1014
a(I1
g128
tp1015
a(I2
g188
tp1016
a(I3
g188
tp1017
a(I0
g188
tp1018
a(I1
g128
tp1019
a(I2
g128
tp1020
a(I3
g128
tp1021
a(I0
g188
tp1022
a(I1
g184
tp1023
a(I2
g188
tp1024
a(I3
g188
tp1025
a(I0
g126
tp1026
a(I1
g184
tp1027
a(I2
g126
tp1028
a(I3
g126
tp1029
a(I0
g126
tp1030
a(I1
g128
tp1031
a(I2
g184
tp1032
a(I3
g126
tp1033
a(I0
g126
tp1034
a(I1
g128
tp1035
a(I2
g184
tp1036
a(I3
g126
tp1037
a(I0
g126
tp1038
a(I1
g128
tp1039
a(I2
g184
tp1040
a(I3
g126
tp1041
a(I0
g126
tp1042
a(I1
g188
tp1043
a(I2
g184
tp1044
a(I3
g126
tp1045
a(I0
g188
tp1046
a(I1
g126
tp1047
a(I2
g128
tp1048
a(I3
g188
tp1049
a(I0
g188
tp1050
a(I1
g188
tp1051
a(I2
g188
tp1052
a(I3
g188
tp1053
a(I0
g188
tp1054
a(I1
g128
tp1055
a(I2
g126
tp1056
a(I3
g188
tp1057
a(I0
g188
tp1058
a(I1
g128
tp1059
a(I2
g184
tp1060
a(I3
g188
tp1061
a(I0
g126
tp1062
a(I1
g128
tp1063
a(I2
g128
tp1064
a(I3
g128
tp1065
a(I0
g126
tp1066
a(I1
g188
tp1067
a(I2
g188
tp1068
a(I3
g128
tp1069
a(I0
g126
tp1070
a(I1
g184
tp1071
a(I2
g126
tp1072
a(I3
g128
tp1073
a(I0
g126
tp1074
a(I1
g128
tp1075
a(I2
g184
tp1076
a(I3
g128
tp1077
a(I0
g126
tp1078
a(I1
g128
tp1079
a(I2
g128
tp1080
a(I3
g128
tp1081
a(I0
g188
tp1082
a(I1
g188
tp1083
a(I2
g188
tp1084
a(I3
g128
tp1085
a(I0
g188
tp1086
a(I1
g184
tp1087
a(I2
g126
tp1088
a(I3
g128
tp1089
a(I0
g126
tp1090
a(I1
g184
tp1091
a(I2
g184
tp1092
a(I3
g128
tp1093
a(I0
g188
tp1094
a(I1
g184
tp1095
a(I2
g128
tp1096
a(I3
g128
tp1097
a(I0
g126
tp1098
a(I1
g126
tp1099
a(I2
g188
tp1100
a(I3
g128
tp1101
a(I0
g126
tp1102
a(I1
g126
tp1103
asS'length'
p1104
I1200
sS'agents'
p1105
(lp1106
(igame
Agent
p1107
(dp1108
S'index'
p1109
I0
sba(igame
Agent
p1110
(dp1111
g1109
I0
sba(igame
Agent
p1112
(dp1113
g1109
I0
sba(igame
Agent
p1114
(dp1115
g1109
I0
sbasS'redTeamName'
p1116
S'HAL9001'
p1117
s.