(dp1
S'layout'
p2
(ilayout
Layout
p3
(dp4
S'capsules'
p5
(lp6
(I6
I5
tp7
a(I25
I10
tp8
asS'numGhosts'
p9
I4
sS'food'
p10
(igame
Grid
p11
(dp12
S'CELLS_PER_INT'
p13
I30
sS'width'
p14
I32
sS'data'
p15
(lp16
(lp17
I00
aI00
aI00
aI00
aI00
aI00
aI00
aI00
aI00
aI00
aI00
aI00
aI00
aI00
aI00
aI00
aa(lp18
I00
aI00
aI00
aI00
aI00
aI00
aI00
aI00
aI00
aI00
aI00
aI00
aI00
aI00
aI00
aI00
aa(lp19
I00
aI00
aI00
aI00
aI00
aI00
aI00
aI00
aI00
aI00
aI00
aI00
aI00
aI00
aI00
aI00
aa(lp20
I00
aI01
aI01
aI00
aI00
aI00
aI00
aI00
aI01
aI00
aI00
aI00
aI00
aI00
aI00
aI00
aa(lp21
I00
aI00
aI00
aI00
aI00
aI00
aI00
aI00
aI00
aI00
aI00
aI00
aI00
aI00
aI00
aI00
aa(lp22
I00
aI01
aI00
aI00
aI00
aI00
aI00
aI00
aI00
aI00
aI00
aI00
aI01
aI00
aI01
aI00
aa(lp23
I00
aI00
aI00
aI00
aI00
aI00
aI00
aI00
aI00
aI00
aI00
aI00
aI00
aI00
aI00
aI00
aa(lp24
I00
aI00
aI00
aI01
aI00
aI00
aI00
aI00
aI01
aI01
aI00
aI00
aI00
aI00
aI00
aI00
aa(lp25
I00
aI00
aI00
aI01
aI00
aI00
aI00
aI00
aI00
aI01
aI00
aI00
aI00
aI00
aI01
aI00
aa(lp26
I00
aI00
aI00
aI00
aI00
aI01
aI00
aI00
aI00
aI00
aI00
aI01
aI00
aI00
aI00
aI00
aa(lp27
I00
aI00
aI00
aI01
aI00
aI00
aI00
aI01
aI00
aI01
aI00
aI01
aI00
aI00
aI01
aI00
aa(lp28
I00
aI00
aI00
aI00
aI00
aI00
aI00
aI00
aI00
aI00
aI00
aI00
aI00
aI00
aI00
aI00
aa(lp29
I00
aI00
aI00
aI00
aI00
aI00
aI00
aI00
aI00
aI00
aI00
aI00
aI00
aI00
aI00
aI00
aa(lp30
I00
aI00
aI00
aI00
aI00
aI00
aI00
aI00
aI00
aI00
aI00
aI00
aI00
aI00
aI00
aI00
aa(lp31
I00
aI00
aI00
aI00
aI00
aI00
aI00
aI00
aI00
aI01
aI00
aI00
aI00
aI00
aI00
aI00
aa(lp32
I00
aI00
aI00
aI00
aI00
aI00
aI00
aI00
aI00
aI00
aI00
aI00
aI00
aI00
aI00
aI00
aa(lp33
I00
aI00
aI00
aI00
aI00
aI00
aI00
aI00
aI00
aI00
aI00
aI00
aI00
aI00
aI00
aI00
aa(lp34
I00
aI00
aI00
aI00
aI00
aI00
aI01
aI00
aI00
aI00
aI00
aI00
aI00
aI00
aI00
aI00
aa(lp35
I00
aI00
aI00
aI00
aI00
aI00
aI00
aI00
aI00
aI00
aI00
aI00
aI00
aI00
aI00
aI00
aa(lp36
I00
aI00
aI00
aI00
aI00
aI00
aI00
aI00
aI00
aI00
aI00
aI00
aI00
aI00
aI00
aI00
aa(lp37
I00
aI00
aI00
aI00
aI00
aI00
aI00
aI00
aI00
aI00
aI00
aI00
aI00
aI00
aI00
aI00
aa(lp38
I00
aI01
aI00
aI00
aI01
aI00
aI01
aI00
aI01
aI00
aI00
aI00
aI01
aI00
aI00
aI00
aa(lp39
I00
aI00
aI00
aI00
aI01
aI00
aI00
aI00
aI00
aI00
aI01
aI00
aI00
aI00
aI00
aI00
aa(lp40
I00
aI01
aI00
aI00
aI00
aI00
aI01
aI00
aI00
aI00
aI00
aI00
aI01
aI00
aI00
aI00
aa(lp41
I00
aI00
aI00
aI00
aI00
aI00
aI01
aI01
aI00
aI00
aI00
aI00
aI01
aI00
aI00
aI00
aa(lp42
I00
aI00
aI00
aI00
aI00
aI00
aI00
aI00
aI00
aI00
aI00
aI00
aI00
aI00
aI00
aI00
aa(lp43
I00
aI01
aI00
aI01
aI00
aI00
aI00
aI00
aI00
aI00
aI00
aI00
aI00
aI00
aI01
aI00
aa(lp44
I00
aI00
aI00
aI00
aI00
aI00
aI00
aI00
aI00
aI00
aI00
aI00
aI00
aI00
aI00
aI00
aa(lp45
I00
aI00
aI00
aI00
aI00
aI00
aI00
aI01
aI00
aI00
aI00
aI00
aI00
aI01
aI01
aI00
aa(lp46
I00
aI00
aI00
aI00
aI00
aI00
aI00
aI00
aI00
aI00
aI00
aI00
aI00
aI00
aI00
aI00
aa(lp47
I00
aI00
aI00
aI00
aI00
aI00
aI00
aI00
aI00
aI00
aI00
aI00
aI00
aI00
aI00
aI00
aa(lp48
I00
aI00
aI00
aI00
aI00
aI00
aI00
aI00
aI00
aI00
aI00
aI00
aI00
aI00
aI00
aI00
aasS'height'
p49
I16
sbsS'agentPositions'
p50
(lp51
(I00
(I1
I2
tp52
tp53
a(I00
(I30
I13
tp54
tp55
a(I00
(I1
I1
tp56
tp57
a(I00
(I30
I14
tp58
tp59
asg49
I16
sg14
I32
sS'walls'
p60
(igame
Grid
p61
(dp62
g13
I30
sg14
I32
sg15
(lp63
(lp64
I01
aI01
aI01
aI01
aI01
aI01
aI01
aI01
aI01
aI01
aI01
aI01
aI01
aI01
aI01
aI01
aa(lp65
I01
aI00
aI00
aI00
aI00
aI00
aI00
aI00
aI00
aI00
aI00
aI00
aI00
aI00
aI00
aI01
aa(lp66
I01
aI01
aI01
aI01
aI01
aI01
aI01
aI01
aI01
aI01
aI01
aI01
aI01
aI01
aI00
aI01
aa(lp67
I01
aI00
aI00
aI00
aI00
aI00
aI00
aI01
aI00
aI01
aI00
aI00
aI00
aI00
aI00
aI01
aa(lp68
I01
aI01
aI01
aI01
aI01
aI01
aI00
aI00
aI00
aI00
aI00
aI01
aI01
aI01
aI01
aI01
aa(lp69
I01
aI00
aI00
aI00
aI00
aI00
aI00
aI00
aI01
aI01
aI00
aI01
aI00
aI01
aI00
aI01
aa(lp70
I01
aI01
aI00
aI01
aI01
aI00
aI01
aI01
aI01
aI00
aI00
aI00
aI00
aI00
aI00
aI01
aa(lp71
I01
aI00
aI00
aI00
aI01
aI00
aI00
aI01
aI00
aI00
aI01
aI01
aI01
aI00
aI01
aI01
aa(lp72
I01
aI00
aI01
aI00
aI01
aI01
aI00
aI01
aI01
aI00
aI01
aI00
aI00
aI00
aI00
aI01
aa(lp73
I01
aI00
aI01
aI01
aI01
aI00
aI00
aI01
aI01
aI01
aI01
aI00
aI01
aI00
aI01
aI01
aa(lp74
I01
aI00
aI01
aI00
aI01
aI01
aI00
aI00
aI01
aI00
aI01
aI00
aI01
aI00
aI00
aI01
aa(lp75
I01
aI00
aI00
aI00
aI00
aI01
aI00
aI01
aI01
aI00
aI01
aI01
aI01
aI00
aI01
aI01
aa(lp76
I01
aI01
aI00
aI01
aI00
aI01
aI00
aI00
aI00
aI00
aI00
aI00
aI00
aI00
aI00
aI01
aa(lp77
I01
aI00
aI00
aI01
aI00
aI00
aI00
aI00
aI00
aI01
aI01
aI01
aI00
aI01
aI00
aI01
aa(lp78
I01
aI00
aI01
aI01
aI01
aI00
aI01
aI00
aI00
aI00
aI01
aI00
aI00
aI01
aI00
aI01
aa(lp79
I01
aI00
aI00
aI01
aI00
aI00
aI01
aI00
aI00
aI01
aI01
aI00
aI00
aI00
aI00
aI01
aa(lp80
I01
aI00
aI00
aI00
aI00
aI01
aI01
aI00
aI00
aI01
aI00
aI00
aI01
aI00
aI00
aI01
aa(lp81
I01
aI00
aI01
aI00
aI00
aI01
aI00
aI00
aI00
aI01
aI00
aI01
aI01
aI01
aI00
aI01
aa(lp82
I01
aI00
aI01
aI00
aI01
aI01
aI01
aI00
aI00
aI00
aI00
aI00
aI01
aI00
aI00
aI01
aa(lp83
I01
aI00
aI00
aI00
aI00
aI00
aI00
aI00
aI00
aI00
aI01
aI00
aI01
aI00
aI01
aI01
aa(lp84
I01
aI01
aI00
aI01
aI01
aI01
aI00
aI01
aI01
aI00
aI01
aI00
aI00
aI00
aI00
aI01
aa(lp85
I01
aI00
aI00
aI01
aI00
aI01
aI00
aI01
aI00
aI00
aI01
aI01
aI00
aI01
aI00
aI01
aa(lp86
I01
aI01
aI00
aI01
aI00
aI01
aI01
aI01
aI01
aI00
aI00
aI01
aI01
aI01
aI00
aI01
aa(lp87
I01
aI00
aI00
aI00
aI00
aI01
aI00
aI01
aI01
aI00
aI01
aI01
aI00
aI01
aI00
aI01
aa(lp88
I01
aI01
aI00
aI01
aI01
aI01
aI00
aI00
aI01
aI00
aI00
aI01
aI00
aI00
aI00
aI01
aa(lp89
I01
aI00
aI00
aI00
aI00
aI00
aI00
aI01
aI01
aI01
aI00
aI01
aI01
aI00
aI01
aI01
aa(lp90
I01
aI00
aI01
aI00
aI01
aI00
aI01
aI01
aI00
aI00
aI00
aI00
aI00
aI00
aI00
aI01
aa(lp91
I01
aI01
aI01
aI01
aI01
aI00
aI00
aI00
aI00
aI00
aI01
aI01
aI01
aI01
aI01
aI01
aa(lp92
I01
aI00
aI00
aI00
aI00
aI00
aI01
aI00
aI01
aI00
aI00
aI00
aI00
aI00
aI00
aI01
aa(lp93
I01
aI00
aI01
aI01
aI01
aI01
aI01
aI01
aI01
aI01
aI01
aI01
aI01
aI01
aI01
aI01
aa(lp94
I01
aI00
aI00
aI00
aI00
aI00
aI00
aI00
aI00
aI00
aI00
aI00
aI00
aI00
aI00
aI01
aa(lp95
I01
aI01
aI01
aI01
aI01
aI01
aI01
aI01
aI01
aI01
aI01
aI01
aI01
aI01
aI01
aI01
aasg49
I16
sbsS'layoutText'
p96
(lp97
S'%%%%%%%%%%%%%%%%%%%%%%%%%%%%%%%%'
p98
aS'%   %. %.%.%       %     %.%.%4%'
p99
aS'% % %%       %%  %   %%%   %.%2%'
p100
aS'% % %. % %%%    %%%% .%..% % % %'
p101
aS'% % %% % ..% %   %   %%%%% % % %'
p102
aS'% %    %%%%% %%%   %%%.% o % % %'
p103
aS'% %% % ..%.  %.%%%       %   % %'
p104
aS'% %. %%.%%%%        %.%%%%  %% %'
p105
aS'% %%  %%%%.%        %%%%.%% .% %'
p106
aS'% %   %       %%%.%  .%.. % %% %'
p107
aS'% % % o %.%%%   %%% %%%%%    % %'
p108
aS'% % % %%%%%   %   % %.. % %% % %'
p109
aS'% % % %..%. %%%%    %%% % .% % %'
p110
aS'%1%.%   %%%   %  %%       %% % %'
p111
aS'%3%.%.%     %       %.%.% .%   %'
p112
aS'%%%%%%%%%%%%%%%%%%%%%%%%%%%%%%%%'
p113
asbsS'blueTeamName'
p114
S'PacmansPack'
p115
sS'actions'
p116
(lp117
(I1
S'South'
p118
tp119
a(I2
S'North'
p120
tp121
a(I3
g118
tp122
a(I0
g120
tp123
a(I1
g118
tp124
a(I2
g120
tp125
a(I3
g118
tp126
a(I0
g120
tp127
a(I1
g118
tp128
a(I2
g120
tp129
a(I3
g118
tp130
a(I0
g120
tp131
a(I1
g118
tp132
a(I2
g120
tp133
a(I3
g118
tp134
a(I0
g120
tp135
a(I1
g118
tp136
a(I2
g120
tp137
a(I3
g118
tp138
a(I0
g120
tp139
a(I1
g118
tp140
a(I2
g120
tp141
a(I3
g118
tp142
a(I0
g120
tp143
a(I1
g118
tp144
a(I2
g120
tp145
a(I3
g118
tp146
a(I0
g120
tp147
a(I1
g118
tp148
a(I2
g120
tp149
a(I3
g118
tp150
a(I0
g120
tp151
a(I1
g118
tp152
a(I2
g120
tp153
a(I3
g118
tp154
a(I0
g120
tp155
a(I1
g118
tp156
a(I2
g120
tp157
a(I3
g118
tp158
a(I0
g120
tp159
a(I1
g118
tp160
a(I2
g120
tp161
a(I3
g118
tp162
a(I0
g120
tp163
a(I1
g118
tp164
a(I2
g120
tp165
a(I3
g118
tp166
a(I0
g120
tp167
a(I1
S'West'
p168
tp169
a(I2
g120
tp170
a(I3
g118
tp171
a(I0
S'East'
p172
tp173
a(I1
g168
tp174
a(I2
g172
tp175
a(I3
g168
tp176
a(I0
g172
tp177
a(I1
g120
tp178
a(I2
g172
tp179
a(I3
g168
tp180
a(I0
g118
tp181
a(I1
g120
tp182
a(I2
g118
tp183
a(I3
g120
tp184
a(I0
g118
tp185
a(I1
g120
tp186
a(I2
g118
tp187
a(I3
g120
tp188
a(I0
g118
tp189
a(I1
g120
tp190
a(I2
g118
tp191
a(I3
g120
tp192
a(I0
g118
tp193
a(I1
g168
tp194
a(I2
g118
tp195
a(I3
g120
tp196
a(I0
g172
tp197
a(I1
g168
tp198
a(I2
g172
tp199
a(I3
g168
tp200
a(I0
g118
tp201
a(I1
g168
tp202
a(I2
g118
tp203
a(I3
g120
tp204
a(I0
g118
tp205
a(I1
g118
tp206
a(I2
g118
tp207
a(I3
g120
tp208
a(I0
g118
tp209
a(I1
g118
tp210
a(I2
g118
tp211
a(I3
g120
tp212
a(I0
g172
tp213
a(I1
g118
tp214
a(I2
g172
tp215
a(I3
g168
tp216
a(I0
g118
tp217
a(I1
g168
tp218
a(I2
g118
tp219
a(I3
g120
tp220
a(I0
g118
tp221
a(I1
g168
tp222
a(I2
g118
tp223
a(I3
g120
tp224
a(I0
g172
tp225
a(I1
g168
tp226
a(I2
g172
tp227
a(I3
g168
tp228
a(I0
g172
tp229
a(I1
g168
tp230
a(I2
g172
tp231
a(I3
g168
tp232
a(I0
g120
tp233
a(I1
g168
tp234
a(I2
g120
tp235
a(I3
g118
tp236
a(I0
g172
tp237
a(I1
g168
tp238
a(I2
g172
tp239
a(I3
g168
tp240
a(I0
g172
tp241
a(I1
g118
tp242
a(I2
g172
tp243
a(I3
g168
tp244
a(I0
g172
tp245
a(I1
g168
tp246
a(I2
g172
tp247
a(I3
g168
tp248
a(I0
g172
tp249
a(I1
g168
tp250
a(I2
g172
tp251
a(I3
g168
tp252
a(I0
g172
tp253
a(I1
g168
tp254
a(I2
g172
tp255
a(I3
g168
tp256
a(I0
g172
tp257
a(I1
g168
tp258
a(I2
g172
tp259
a(I3
g168
tp260
a(I0
g120
tp261
a(I1
g168
tp262
a(I2
g118
tp263
a(I3
g118
tp264
a(I0
g118
tp265
a(I1
g168
tp266
a(I2
g118
tp267
a(I3
g168
tp268
a(I0
g118
tp269
a(I1
g120
tp270
a(I2
g168
tp271
a(I3
g168
tp272
a(I0
g118
tp273
a(I1
g168
tp274
a(I2
g168
tp275
a(I3
g168
tp276
a(I0
g168
tp277
a(I1
g168
tp278
a(I2
g118
tp279
a(I3
g168
tp280
a(I0
g168
tp281
a(I1
g118
tp282
a(I2
g118
tp283
a(I3
g120
tp284
a(I0
g118
tp285
a(I1
g120
tp286
a(I2
g172
tp287
a(I3
g118
tp288
a(I0
g120
tp289
a(I1
g118
tp290
a(I2
g172
tp291
a(I3
g168
tp292
a(I0
g172
tp293
a(I1
g118
tp294
a(I2
g168
tp295
a(I3
g168
tp296
a(I0
g172
tp297
a(I1
g118
tp298
a(I2
g168
tp299
a(I3
g120
tp300
a(I0
g120
tp301
a(I1
g118
tp302
a(I2
g120
tp303
a(I3
g168
tp304
a(I0
g120
tp305
a(I1
g118
tp306
a(I2
g120
tp307
a(I3
g168
tp308
a(I0
g120
tp309
a(I1
g118
tp310
a(I2
g172
tp311
a(I3
g172
tp312
a(I0
g120
tp313
a(I1
g118
tp314
a(I2
g172
tp315
a(I3
g172
tp316
a(I0
g168
tp317
a(I1
g118
tp318
a(I2
g120
tp319
a(I3
g118
tp320
a(I0
g172
tp321
a(I1
g118
tp322
a(I2
g172
tp323
a(I3
g118
tp324
a(I0
g118
tp325
a(I1
g118
tp326
a(I2
g172
tp327
a(I3
g118
tp328
a(I0
g172
tp329
a(I1
g118
tp330
a(I2
g118
tp331
a(I3
g118
tp332
a(I0
g172
tp333
a(I1
g118
tp334
a(I2
g172
tp335
a(I3
g118
tp336
a(I0
g172
tp337
a(I1
g168
tp338
a(I2
g172
tp339
a(I3
g118
tp340
a(I0
g172
tp341
a(I1
g168
tp342
a(I2
g118
tp343
a(I3
g118
tp344
a(I0
g118
tp345
a(I1
g120
tp346
a(I2
g172
tp347
a(I3
g118
tp348
a(I0
g120
tp349
a(I1
g120
tp350
a(I2
g172
tp351
a(I3
g118
tp352
a(I0
g172
tp353
a(I1
g120
tp354
a(I2
g118
tp355
a(I3
g118
tp356
a(I0
g172
tp357
a(I1
g120
tp358
a(I2
g172
tp359
a(I3
g118
tp360
a(I0
g118
tp361
a(I1
g168
tp362
a(I2
g172
tp363
a(I3
g118
tp364
a(I0
g172
tp365
a(I1
g168
tp366
a(I2
g118
tp367
a(I3
g118
tp368
a(I0
g172
tp369
a(I1
g168
tp370
a(I2
g120
tp371
a(I3
g118
tp372
a(I0
g168
tp373
a(I1
g118
tp374
a(I2
g172
tp375
a(I3
g168
tp376
a(I0
g168
tp377
a(I1
g118
tp378
a(I2
g172
tp379
a(I3
g168
tp380
a(I0
g120
tp381
a(I1
g118
tp382
a(I2
g118
tp383
a(I3
g120
tp384
a(I0
g120
tp385
a(I1
g168
tp386
a(I2
S'Stop'
p387
tp388
a(I3
g120
tp389
a(I0
g120
tp390
a(I1
g168
tp391
a(I2
g120
tp392
a(I3
g120
tp393
a(I0
g172
tp394
a(I1
g168
tp395
a(I2
g120
tp396
a(I3
g120
tp397
a(I0
g172
tp398
a(I1
g168
tp399
a(I2
g120
tp400
a(I3
g168
tp401
a(I0
g118
tp402
a(I1
g168
tp403
a(I2
g120
tp404
a(I3
g168
tp405
a(I0
g120
tp406
a(I1
g168
tp407
a(I2
g120
tp408
a(I3
g168
tp409
a(I0
g172
tp410
a(I1
g118
tp411
a(I2
g120
tp412
a(I3
g118
tp413
a(I0
g120
tp414
a(I1
g168
tp415
a(I2
g120
tp416
a(I3
g118
tp417
a(I0
g118
tp418
a(I1
g168
tp419
a(I2
g120
tp420
a(I3
g118
tp421
a(I0
g172
tp422
a(I1
g168
tp423
a(I2
g120
tp424
a(I3
g168
tp425
a(I0
g172
tp426
a(I1
g168
tp427
a(I2
g120
tp428
a(I3
g168
tp429
a(I0
g120
tp430
a(I1
g168
tp431
a(I2
g120
tp432
a(I3
g168
tp433
a(I0
g172
tp434
a(I1
g168
tp435
a(I2
g120
tp436
a(I3
g168
tp437
a(I0
g172
tp438
a(I1
g120
tp439
a(I2
g120
tp440
a(I3
g168
tp441
a(I0
g120
tp442
a(I1
g168
tp443
a(I2
g120
tp444
a(I3
g168
tp445
a(I0
g120
tp446
a(I1
g168
tp447
a(I2
g172
tp448
a(I3
g120
tp449
a(I0
g120
tp450
a(I1
g120
tp451
a(I2
g172
tp452
a(I3
g168
tp453
a(I0
g120
tp454
a(I1
g168
tp455
a(I2
g118
tp456
a(I3
g168
tp457
a(I0
g118
tp458
a(I1
g172
tp459
a(I2
g118
tp460
a(I3
g168
tp461
a(I0
g168
tp462
a(I1
g118
tp463
a(I2
g118
tp464
a(I3
g120
tp465
a(I0
g168
tp466
a(I1
g118
tp467
a(I2
g118
tp468
a(I3
g168
tp469
a(I0
g118
tp470
a(I1
g168
tp471
a(I2
g172
tp472
a(I3
g120
tp473
a(I0
g168
tp474
a(I1
g168
tp475
a(I2
g118
tp476
a(I3
g168
tp477
a(I0
g172
tp478
a(I1
g168
tp479
a(I2
g118
tp480
a(I3
g168
tp481
a(I0
g120
tp482
a(I1
g168
tp483
a(I2
g118
tp484
a(I3
g120
tp485
a(I0
g120
tp486
a(I1
g120
tp487
a(I2
g172
tp488
a(I3
g168
tp489
a(I0
g168
tp490
a(I1
g120
tp491
a(I2
g118
tp492
a(I3
g168
tp493
a(I0
g168
tp494
a(I1
g172
tp495
a(I2
g118
tp496
a(I3
g168
tp497
a(I0
g168
tp498
a(I1
g168
tp499
a(I2
g118
tp500
a(I3
g120
tp501
a(I0
g168
tp502
a(I1
g118
tp503
a(I2
g118
tp504
a(I3
g118
tp505
a(I0
g118
tp506
a(I1
g168
tp507
a(I2
g118
tp508
a(I3
g168
tp509
a(I0
g118
tp510
a(I1
g387
tp511
a(I2
g172
tp512
a(I3
g168
tp513
a(I0
g172
tp514
a(I1
g118
tp515
a(I2
g172
tp516
a(I3
g168
tp517
a(I0
g168
tp518
a(I1
g118
tp519
a(I2
g168
tp520
a(I3
g118
tp521
a(I0
g118
tp522
a(I1
g118
tp523
a(I2
g168
tp524
a(I3
g168
tp525
a(I0
g168
tp526
a(I1
g118
tp527
a(I2
g172
tp528
a(I3
g168
tp529
a(I0
g168
tp530
a(I1
g118
tp531
a(I2
g172
tp532
a(I3
g120
tp533
a(I0
g118
tp534
a(I1
g118
tp535
a(I2
g118
tp536
a(I3
g168
tp537
a(I0
g118
tp538
a(I1
g118
tp539
a(I2
g172
tp540
a(I3
g120
tp541
a(I0
g172
tp542
a(I1
g118
tp543
a(I2
g172
tp544
a(I3
g120
tp545
a(I0
g172
tp546
a(I1
g118
tp547
a(I2
g172
tp548
a(I3
g168
tp549
a(I0
g172
tp550
a(I1
g118
tp551
a(I2
g172
tp552
a(I3
g172
tp553
a(I0
g172
tp554
a(I1
g118
tp555
a(I2
g120
tp556
a(I3
g120
tp557
a(I0
g172
tp558
a(I1
g118
tp559
a(I2
g172
tp560
a(I3
g120
tp561
a(I0
g172
tp562
a(I1
g168
tp563
a(I2
g172
tp564
a(I3
g172
tp565
a(I0
g120
tp566
a(I1
g168
tp567
a(I2
g118
tp568
a(I3
g172
tp569
a(I0
g172
tp570
a(I1
g120
tp571
a(I2
g172
tp572
a(I3
g118
tp573
a(I0
g172
tp574
a(I1
g120
tp575
a(I2
g172
tp576
a(I3
g172
tp577
a(I0
g118
tp578
a(I1
g120
tp579
a(I2
g172
tp580
a(I3
g118
tp581
a(I0
g172
tp582
a(I1
g120
tp583
a(I2
g172
tp584
a(I3
g120
tp585
a(I0
g118
tp586
a(I1
g168
tp587
a(I2
g172
tp588
a(I3
g172
tp589
a(I0
g387
tp590
a(I1
g168
tp591
a(I2
g172
tp592
a(I3
g168
tp593
a(I0
g118
tp594
a(I1
g168
tp595
a(I2
g120
tp596
a(I3
g168
tp597
a(I0
g172
tp598
a(I1
g118
tp599
a(I2
g172
tp600
a(I3
g120
tp601
a(I0
g168
tp602
a(I1
g118
tp603
a(I2
g172
tp604
a(I3
g120
tp605
a(I0
g118
tp606
a(I1
g118
tp607
a(I2
g172
tp608
a(I3
g120
tp609
a(I0
g118
tp610
a(I1
g168
tp611
a(I2
g168
tp612
a(I3
g168
tp613
a(I0
g168
tp614
a(I1
g168
tp615
a(I2
g168
tp616
a(I3
g172
tp617
a(I0
g168
tp618
a(I1
g168
tp619
a(I2
g168
tp620
a(I3
g120
tp621
a(I0
g120
tp622
a(I1
g168
tp623
a(I2
g118
tp624
a(I3
g120
tp625
a(I0
g168
tp626
a(I1
g168
tp627
a(I2
g168
tp628
a(I3
g168
tp629
a(I0
g120
tp630
a(I1
g168
tp631
a(I2
g168
tp632
a(I3
g172
tp633
a(I0
g118
tp634
a(I1
g118
tp635
a(I2
g168
tp636
a(I3
g118
tp637
a(I0
g168
tp638
a(I1
g168
tp639
a(I2
g168
tp640
a(I3
g172
tp641
a(I0
g172
tp642
a(I1
g168
tp643
a(I2
g168
tp644
a(I3
g172
tp645
a(I0
g172
tp646
a(I1
g168
tp647
a(I2
g168
tp648
a(I3
g120
tp649
a(I0
g118
tp650
a(I1
g168
tp651
a(I2
g172
tp652
a(I3
g118
tp653
a(I0
g172
tp654
a(I1
g168
tp655
a(I2
g120
tp656
a(I3
g118
tp657
a(I0
g172
tp658
a(I1
g168
tp659
a(I2
g120
tp660
a(I3
g118
tp661
a(I0
g120
tp662
a(I1
g120
tp663
a(I2
g120
tp664
a(I3
g172
tp665
a(I0
g120
tp666
a(I1
g168
tp667
a(I2
g120
tp668
a(I3
g172
tp669
a(I0
g120
tp670
a(I1
g168
tp671
a(I2
g120
tp672
a(I3
g168
tp673
a(I0
g120
tp674
a(I1
g118
tp675
a(I2
g120
tp676
a(I3
g168
tp677
a(I0
g172
tp678
a(I1
g168
tp679
a(I2
g120
tp680
a(I3
g120
tp681
a(I0
g120
tp682
a(I1
g168
tp683
a(I2
g120
tp684
a(I3
g120
tp685
a(I0
g120
tp686
a(I1
g168
tp687
a(I2
g120
tp688
a(I3
g172
tp689
a(I0
g120
tp690
a(I1
g168
tp691
a(I2
g120
tp692
a(I3
g172
tp693
a(I0
g120
tp694
a(I1
g120
tp695
a(I2
g120
tp696
a(I3
g120
tp697
a(I0
g120
tp698
a(I1
g168
tp699
a(I2
g120
tp700
a(I3
g118
tp701
a(I0
g118
tp702
a(I1
g168
tp703
a(I2
g120
tp704
a(I3
g172
tp705
a(I0
g118
tp706
a(I1
g118
tp707
a(I2
g172
tp708
a(I3
g172
tp709
a(I0
g118
tp710
a(I1
g120
tp711
a(I2
g172
tp712
a(I3
g118
tp713
a(I0
g118
tp714
a(I1
g120
tp715
a(I2
g118
tp716
a(I3
g118
tp717
a(I0
g118
tp718
a(I1
g120
tp719
a(I2
g118
tp720
a(I3
g118
tp721
a(I0
g168
tp722
a(I1
g120
tp723
a(I2
g118
tp724
a(I3
g118
tp725
a(I0
g118
tp726
a(I1
g172
tp727
a(I2
g118
tp728
a(I3
g118
tp729
a(I0
g118
tp730
a(I1
g172
tp731
a(I2
g172
tp732
a(I3
g118
tp733
a(I0
g118
tp734
a(I1
g120
tp735
a(I2
g118
tp736
a(I3
g118
tp737
a(I0
g118
tp738
a(I1
g172
tp739
a(I2
g118
tp740
a(I3
g168
tp741
a(I0
g168
tp742
a(I1
g172
tp743
a(I2
g118
tp744
a(I3
g168
tp745
a(I0
g168
tp746
a(I1
g118
tp747
asS'length'
p748
I1200
sS'agents'
p749
(lp750
(igame
Agent
p751
(dp752
S'index'
p753
I0
sba(igame
Agent
p754
(dp755
g753
I0
sba(igame
Agent
p756
(dp757
g753
I0
sba(igame
Agent
p758
(dp759
g753
I0
sbasS'redTeamName'
p760
S'HAL9001'
p761
s.