(dp1
S'layout'
p2
(ilayout
Layout
p3
(dp4
S'capsules'
p5
(lp6
(I6
I5
tp7
a(I25
I10
tp8
asS'numGhosts'
p9
I4
sS'food'
p10
(igame
Grid
p11
(dp12
S'CELLS_PER_INT'
p13
I30
sS'width'
p14
I32
sS'data'
p15
(lp16
(lp17
I00
aI00
aI00
aI00
aI00
aI00
aI00
aI00
aI00
aI00
aI00
aI00
aI00
aI00
aI00
aI00
aa(lp18
I00
aI00
aI00
aI00
aI00
aI00
aI00
aI00
aI00
aI00
aI00
aI00
aI00
aI00
aI00
aI00
aa(lp19
I00
aI00
aI00
aI00
aI00
aI00
aI00
aI00
aI00
aI00
aI00
aI00
aI00
aI00
aI00
aI00
aa(lp20
I00
aI01
aI01
aI00
aI00
aI00
aI00
aI00
aI01
aI00
aI00
aI00
aI00
aI00
aI00
aI00
aa(lp21
I00
aI00
aI00
aI00
aI00
aI00
aI00
aI00
aI00
aI00
aI00
aI00
aI00
aI00
aI00
aI00
aa(lp22
I00
aI01
aI00
aI00
aI00
aI00
aI00
aI00
aI00
aI00
aI00
aI00
aI01
aI00
aI01
aI00
aa(lp23
I00
aI00
aI00
aI00
aI00
aI00
aI00
aI00
aI00
aI00
aI00
aI00
aI00
aI00
aI00
aI00
aa(lp24
I00
aI00
aI00
aI01
aI00
aI00
aI00
aI00
aI01
aI01
aI00
aI00
aI00
aI00
aI00
aI00
aa(lp25
I00
aI00
aI00
aI01
aI00
aI00
aI00
aI00
aI00
aI01
aI00
aI00
aI00
aI00
aI01
aI00
aa(lp26
I00
aI00
aI00
aI00
aI00
aI01
aI00
aI00
aI00
aI00
aI00
aI01
aI00
aI00
aI00
aI00
aa(lp27
I00
aI00
aI00
aI01
aI00
aI00
aI00
aI01
aI00
aI01
aI00
aI01
aI00
aI00
aI01
aI00
aa(lp28
I00
aI00
aI00
aI00
aI00
aI00
aI00
aI00
aI00
aI00
aI00
aI00
aI00
aI00
aI00
aI00
aa(lp29
I00
aI00
aI00
aI00
aI00
aI00
aI00
aI00
aI00
aI00
aI00
aI00
aI00
aI00
aI00
aI00
aa(lp30
I00
aI00
aI00
aI00
aI00
aI00
aI00
aI00
aI00
aI00
aI00
aI00
aI00
aI00
aI00
aI00
aa(lp31
I00
aI00
aI00
aI00
aI00
aI00
aI00
aI00
aI00
aI01
aI00
aI00
aI00
aI00
aI00
aI00
aa(lp32
I00
aI00
aI00
aI00
aI00
aI00
aI00
aI00
aI00
aI00
aI00
aI00
aI00
aI00
aI00
aI00
aa(lp33
I00
aI00
aI00
aI00
aI00
aI00
aI00
aI00
aI00
aI00
aI00
aI00
aI00
aI00
aI00
aI00
aa(lp34
I00
aI00
aI00
aI00
aI00
aI00
aI01
aI00
aI00
aI00
aI00
aI00
aI00
aI00
aI00
aI00
aa(lp35
I00
aI00
aI00
aI00
aI00
aI00
aI00
aI00
aI00
aI00
aI00
aI00
aI00
aI00
aI00
aI00
aa(lp36
I00
aI00
aI00
aI00
aI00
aI00
aI00
aI00
aI00
aI00
aI00
aI00
aI00
aI00
aI00
aI00
aa(lp37
I00
aI00
aI00
aI00
aI00
aI00
aI00
aI00
aI00
aI00
aI00
aI00
aI00
aI00
aI00
aI00
aa(lp38
I00
aI01
aI00
aI00
aI01
aI00
aI01
aI00
aI01
aI00
aI00
aI00
aI01
aI00
aI00
aI00
aa(lp39
I00
aI00
aI00
aI00
aI01
aI00
aI00
aI00
aI00
aI00
aI01
aI00
aI00
aI00
aI00
aI00
aa(lp40
I00
aI01
aI00
aI00
aI00
aI00
aI01
aI00
aI00
aI00
aI00
aI00
aI01
aI00
aI00
aI00
aa(lp41
I00
aI00
aI00
aI00
aI00
aI00
aI01
aI01
aI00
aI00
aI00
aI00
aI01
aI00
aI00
aI00
aa(lp42
I00
aI00
aI00
aI00
aI00
aI00
aI00
aI00
aI00
aI00
aI00
aI00
aI00
aI00
aI00
aI00
aa(lp43
I00
aI01
aI00
aI01
aI00
aI00
aI00
aI00
aI00
aI00
aI00
aI00
aI00
aI00
aI01
aI00
aa(lp44
I00
aI00
aI00
aI00
aI00
aI00
aI00
aI00
aI00
aI00
aI00
aI00
aI00
aI00
aI00
aI00
aa(lp45
I00
aI00
aI00
aI00
aI00
aI00
aI00
aI01
aI00
aI00
aI00
aI00
aI00
aI01
aI01
aI00
aa(lp46
I00
aI00
aI00
aI00
aI00
aI00
aI00
aI00
aI00
aI00
aI00
aI00
aI00
aI00
aI00
aI00
aa(lp47
I00
aI00
aI00
aI00
aI00
aI00
aI00
aI00
aI00
aI00
aI00
aI00
aI00
aI00
aI00
aI00
aa(lp48
I00
aI00
aI00
aI00
aI00
aI00
aI00
aI00
aI00
aI00
aI00
aI00
aI00
aI00
aI00
aI00
aasS'height'
p49
I16
sbsS'agentPositions'
p50
(lp51
(I00
(I1
I2
tp52
tp53
a(I00
(I30
I13
tp54
tp55
a(I00
(I1
I1
tp56
tp57
a(I00
(I30
I14
tp58
tp59
asg49
I16
sg14
I32
sS'walls'
p60
(igame
Grid
p61
(dp62
g13
I30
sg14
I32
sg15
(lp63
(lp64
I01
aI01
aI01
aI01
aI01
aI01
aI01
aI01
aI01
aI01
aI01
aI01
aI01
aI01
aI01
aI01
aa(lp65
I01
aI00
aI00
aI00
aI00
aI00
aI00
aI00
aI00
aI00
aI00
aI00
aI00
aI00
aI00
aI01
aa(lp66
I01
aI01
aI01
aI01
aI01
aI01
aI01
aI01
aI01
aI01
aI01
aI01
aI01
aI01
aI00
aI01
aa(lp67
I01
aI00
aI00
aI00
aI00
aI00
aI00
aI01
aI00
aI01
aI00
aI00
aI00
aI00
aI00
aI01
aa(lp68
I01
aI01
aI01
aI01
aI01
aI01
aI00
aI00
aI00
aI00
aI00
aI01
aI01
aI01
aI01
aI01
aa(lp69
I01
aI00
aI00
aI00
aI00
aI00
aI00
aI00
aI01
aI01
aI00
aI01
aI00
aI01
aI00
aI01
aa(lp70
I01
aI01
aI00
aI01
aI01
aI00
aI01
aI01
aI01
aI00
aI00
aI00
aI00
aI00
aI00
aI01
aa(lp71
I01
aI00
aI00
aI00
aI01
aI00
aI00
aI01
aI00
aI00
aI01
aI01
aI01
aI00
aI01
aI01
aa(lp72
I01
aI00
aI01
aI00
aI01
aI01
aI00
aI01
aI01
aI00
aI01
aI00
aI00
aI00
aI00
aI01
aa(lp73
I01
aI00
aI01
aI01
aI01
aI00
aI00
aI01
aI01
aI01
aI01
aI00
aI01
aI00
aI01
aI01
aa(lp74
I01
aI00
aI01
aI00
aI01
aI01
aI00
aI00
aI01
aI00
aI01
aI00
aI01
aI00
aI00
aI01
aa(lp75
I01
aI00
aI00
aI00
aI00
aI01
aI00
aI01
aI01
aI00
aI01
aI01
aI01
aI00
aI01
aI01
aa(lp76
I01
aI01
aI00
aI01
aI00
aI01
aI00
aI00
aI00
aI00
aI00
aI00
aI00
aI00
aI00
aI01
aa(lp77
I01
aI00
aI00
aI01
aI00
aI00
aI00
aI00
aI00
aI01
aI01
aI01
aI00
aI01
aI00
aI01
aa(lp78
I01
aI00
aI01
aI01
aI01
aI00
aI01
aI00
aI00
aI00
aI01
aI00
aI00
aI01
aI00
aI01
aa(lp79
I01
aI00
aI00
aI01
aI00
aI00
aI01
aI00
aI00
aI01
aI01
aI00
aI00
aI00
aI00
aI01
aa(lp80
I01
aI00
aI00
aI00
aI00
aI01
aI01
aI00
aI00
aI01
aI00
aI00
aI01
aI00
aI00
aI01
aa(lp81
I01
aI00
aI01
aI00
aI00
aI01
aI00
aI00
aI00
aI01
aI00
aI01
aI01
aI01
aI00
aI01
aa(lp82
I01
aI00
aI01
aI00
aI01
aI01
aI01
aI00
aI00
aI00
aI00
aI00
aI01
aI00
aI00
aI01
aa(lp83
I01
aI00
aI00
aI00
aI00
aI00
aI00
aI00
aI00
aI00
aI01
aI00
aI01
aI00
aI01
aI01
aa(lp84
I01
aI01
aI00
aI01
aI01
aI01
aI00
aI01
aI01
aI00
aI01
aI00
aI00
aI00
aI00
aI01
aa(lp85
I01
aI00
aI00
aI01
aI00
aI01
aI00
aI01
aI00
aI00
aI01
aI01
aI00
aI01
aI00
aI01
aa(lp86
I01
aI01
aI00
aI01
aI00
aI01
aI01
aI01
aI01
aI00
aI00
aI01
aI01
aI01
aI00
aI01
aa(lp87
I01
aI00
aI00
aI00
aI00
aI01
aI00
aI01
aI01
aI00
aI01
aI01
aI00
aI01
aI00
aI01
aa(lp88
I01
aI01
aI00
aI01
aI01
aI01
aI00
aI00
aI01
aI00
aI00
aI01
aI00
aI00
aI00
aI01
aa(lp89
I01
aI00
aI00
aI00
aI00
aI00
aI00
aI01
aI01
aI01
aI00
aI01
aI01
aI00
aI01
aI01
aa(lp90
I01
aI00
aI01
aI00
aI01
aI00
aI01
aI01
aI00
aI00
aI00
aI00
aI00
aI00
aI00
aI01
aa(lp91
I01
aI01
aI01
aI01
aI01
aI00
aI00
aI00
aI00
aI00
aI01
aI01
aI01
aI01
aI01
aI01
aa(lp92
I01
aI00
aI00
aI00
aI00
aI00
aI01
aI00
aI01
aI00
aI00
aI00
aI00
aI00
aI00
aI01
aa(lp93
I01
aI00
aI01
aI01
aI01
aI01
aI01
aI01
aI01
aI01
aI01
aI01
aI01
aI01
aI01
aI01
aa(lp94
I01
aI00
aI00
aI00
aI00
aI00
aI00
aI00
aI00
aI00
aI00
aI00
aI00
aI00
aI00
aI01
aa(lp95
I01
aI01
aI01
aI01
aI01
aI01
aI01
aI01
aI01
aI01
aI01
aI01
aI01
aI01
aI01
aI01
aasg49
I16
sbsS'layoutText'
p96
(lp97
S'%%%%%%%%%%%%%%%%%%%%%%%%%%%%%%%%'
p98
aS'%   %. %.%.%       %     %.%.%4%'
p99
aS'% % %%       %%  %   %%%   %.%2%'
p100
aS'% % %. % %%%    %%%% .%..% % % %'
p101
aS'% % %% % ..% %   %   %%%%% % % %'
p102
aS'% %    %%%%% %%%   %%%.% o % % %'
p103
aS'% %% % ..%.  %.%%%       %   % %'
p104
aS'% %. %%.%%%%        %.%%%%  %% %'
p105
aS'% %%  %%%%.%        %%%%.%% .% %'
p106
aS'% %   %       %%%.%  .%.. % %% %'
p107
aS'% % % o %.%%%   %%% %%%%%    % %'
p108
aS'% % % %%%%%   %   % %.. % %% % %'
p109
aS'% % % %..%. %%%%    %%% % .% % %'
p110
aS'%1%.%   %%%   %  %%       %% % %'
p111
aS'%3%.%.%     %       %.%.% .%   %'
p112
aS'%%%%%%%%%%%%%%%%%%%%%%%%%%%%%%%%'
p113
asbsS'blueTeamName'
p114
S'2Pac'
p115
sS'actions'
p116
(lp117
(I1
S'South'
p118
tp119
a(I2
S'North'
p120
tp121
a(I3
g118
tp122
a(I0
g120
tp123
a(I1
g118
tp124
a(I2
g120
tp125
a(I3
g118
tp126
a(I0
g120
tp127
a(I1
g118
tp128
a(I2
g120
tp129
a(I3
g118
tp130
a(I0
g120
tp131
a(I1
g118
tp132
a(I2
g120
tp133
a(I3
g118
tp134
a(I0
g120
tp135
a(I1
g118
tp136
a(I2
g120
tp137
a(I3
g118
tp138
a(I0
g120
tp139
a(I1
g118
tp140
a(I2
g120
tp141
a(I3
g118
tp142
a(I0
g120
tp143
a(I1
g118
tp144
a(I2
g120
tp145
a(I3
g118
tp146
a(I0
g120
tp147
a(I1
g118
tp148
a(I2
g120
tp149
a(I3
g118
tp150
a(I0
g120
tp151
a(I1
g118
tp152
a(I2
g120
tp153
a(I3
g118
tp154
a(I0
g120
tp155
a(I1
g118
tp156
a(I2
g120
tp157
a(I3
g118
tp158
a(I0
g120
tp159
a(I1
g118
tp160
a(I2
g120
tp161
a(I3
g118
tp162
a(I0
g120
tp163
a(I1
g118
tp164
a(I2
g120
tp165
a(I3
g118
tp166
a(I0
g120
tp167
a(I1
S'West'
p168
tp169
a(I2
g120
tp170
a(I3
g118
tp171
a(I0
S'East'
p172
tp173
a(I1
g168
tp174
a(I2
g172
tp175
a(I3
g168
tp176
a(I0
g172
tp177
a(I1
g120
tp178
a(I2
g172
tp179
a(I3
g168
tp180
a(I0
g118
tp181
a(I1
g120
tp182
a(I2
g118
tp183
a(I3
g120
tp184
a(I0
g118
tp185
a(I1
g120
tp186
a(I2
g118
tp187
a(I3
g120
tp188
a(I0
g118
tp189
a(I1
g120
tp190
a(I2
g118
tp191
a(I3
g120
tp192
a(I0
g118
tp193
a(I1
g168
tp194
a(I2
g118
tp195
a(I3
g120
tp196
a(I0
g172
tp197
a(I1
g120
tp198
a(I2
g172
tp199
a(I3
g168
tp200
a(I0
g118
tp201
a(I1
g120
tp202
a(I2
g172
tp203
a(I3
g120
tp204
a(I0
g118
tp205
a(I1
g120
tp206
a(I2
g172
tp207
a(I3
g120
tp208
a(I0
g118
tp209
a(I1
g120
tp210
a(I2
g120
tp211
a(I3
g120
tp212
a(I0
g118
tp213
a(I1
g168
tp214
a(I2
g118
tp215
a(I3
g168
tp216
a(I0
g172
tp217
a(I1
g120
tp218
a(I2
g168
tp219
a(I3
g120
tp220
a(I0
g118
tp221
a(I1
g168
tp222
a(I2
g172
tp223
a(I3
g120
tp224
a(I0
g172
tp225
a(I1
g168
tp226
a(I2
g120
tp227
a(I3
g168
tp228
a(I0
g172
tp229
a(I1
g118
tp230
a(I2
g118
tp231
a(I3
g168
tp232
a(I0
g120
tp233
a(I1
g168
tp234
a(I2
g168
tp235
a(I3
g118
tp236
a(I0
g172
tp237
a(I1
g168
tp238
a(I2
g172
tp239
a(I3
g168
tp240
a(I0
g172
tp241
a(I1
g168
tp242
a(I2
g120
tp243
a(I3
g168
tp244
a(I0
g172
tp245
a(I1
g168
tp246
a(I2
g118
tp247
a(I3
g168
tp248
a(I0
g172
tp249
a(I1
g168
tp250
a(I2
g168
tp251
a(I3
g168
tp252
a(I0
g172
tp253
a(I1
g118
tp254
a(I2
g172
tp255
a(I3
g168
tp256
a(I0
g120
tp257
a(I1
g168
tp258
a(I2
g120
tp259
a(I3
g118
tp260
a(I0
g172
tp261
a(I1
g168
tp262
a(I2
g118
tp263
a(I3
g168
tp264
a(I0
g172
tp265
a(I1
g168
tp266
a(I2
g168
tp267
a(I3
g168
tp268
a(I0
g172
tp269
a(I1
g168
tp270
a(I2
g172
tp271
a(I3
g168
tp272
a(I0
g168
tp273
a(I1
g168
tp274
a(I2
g120
tp275
a(I3
g168
tp276
a(I0
g172
tp277
a(I1
g172
tp278
a(I2
g120
tp279
a(I3
S'Stop'
p280
tp281
a(I0
g172
tp282
a(I1
g172
tp283
a(I2
g120
tp284
a(I3
g118
tp285
a(I0
g172
tp286
a(I1
g172
tp287
a(I2
g172
tp288
a(I3
g172
tp289
a(I0
g118
tp290
a(I1
g118
tp291
a(I2
g168
tp292
a(I3
g172
tp293
a(I0
g280
tp294
a(I1
g168
tp295
a(I2
g118
tp296
a(I3
g280
tp297
a(I0
g280
tp298
a(I1
g168
tp299
a(I2
g120
tp300
a(I3
g280
tp301
a(I0
g280
tp302
a(I1
g168
tp303
a(I2
g172
tp304
a(I3
g280
tp305
a(I0
g280
tp306
a(I1
g120
tp307
a(I2
g172
tp308
a(I3
g280
tp309
a(I0
g280
tp310
a(I1
g120
tp311
a(I2
g168
tp312
a(I3
g280
tp313
a(I0
g280
tp314
a(I1
g118
tp315
a(I2
g172
tp316
a(I3
g280
tp317
a(I0
g280
tp318
a(I1
g168
tp319
a(I2
g168
tp320
a(I3
g280
tp321
a(I0
g280
tp322
a(I1
g168
tp323
a(I2
g168
tp324
a(I3
g280
tp325
a(I0
g280
tp326
a(I1
g120
tp327
a(I2
g118
tp328
a(I3
g280
tp329
a(I0
g280
tp330
a(I1
g168
tp331
a(I2
g118
tp332
a(I3
g280
tp333
a(I0
g280
tp334
a(I1
g168
tp335
a(I2
g118
tp336
a(I3
g280
tp337
a(I0
g280
tp338
a(I1
g172
tp339
a(I2
g168
tp340
a(I3
g280
tp341
a(I0
g280
tp342
a(I1
g172
tp343
a(I2
g168
tp344
a(I3
g280
tp345
a(I0
g280
tp346
a(I1
g118
tp347
a(I2
g118
tp348
a(I3
g280
tp349
a(I0
g280
tp350
a(I1
g118
tp351
a(I2
g118
tp352
a(I3
g280
tp353
a(I0
g280
tp354
a(I1
g118
tp355
a(I2
g118
tp356
a(I3
g280
tp357
a(I0
g280
tp358
a(I1
g168
tp359
a(I2
g120
tp360
a(I3
g280
tp361
a(I0
g280
tp362
a(I1
g168
tp363
a(I2
g120
tp364
a(I3
g280
tp365
a(I0
g280
tp366
a(I1
g120
tp367
a(I2
g120
tp368
a(I3
g280
tp369
a(I0
g280
tp370
a(I1
g118
tp371
a(I2
g172
tp372
a(I3
g280
tp373
a(I0
g280
tp374
a(I1
g168
tp375
a(I2
g172
tp376
a(I3
g280
tp377
a(I0
g280
tp378
a(I1
g118
tp379
a(I2
g120
tp380
a(I3
g280
tp381
a(I0
g280
tp382
a(I1
g120
tp383
a(I2
g118
tp384
a(I3
g280
tp385
a(I0
g280
tp386
a(I1
g168
tp387
a(I2
g168
tp388
a(I3
g280
tp389
a(I0
g280
tp390
a(I1
g168
tp391
a(I2
g172
tp392
a(I3
g280
tp393
a(I0
g280
tp394
a(I1
g118
tp395
a(I2
g120
tp396
a(I3
g280
tp397
a(I0
g280
tp398
a(I1
g168
tp399
a(I2
g118
tp400
a(I3
g280
tp401
a(I0
g280
tp402
a(I1
g168
tp403
a(I2
g168
tp404
a(I3
g280
tp405
a(I0
g280
tp406
a(I1
g118
tp407
a(I2
g168
tp408
a(I3
g280
tp409
a(I0
g280
tp410
a(I1
g118
tp411
a(I2
g172
tp412
a(I3
g280
tp413
a(I0
g280
tp414
a(I1
g118
tp415
a(I2
g172
tp416
a(I3
g280
tp417
a(I0
g280
tp418
a(I1
g118
tp419
a(I2
g120
tp420
a(I3
g280
tp421
a(I0
g280
tp422
a(I1
g120
tp423
a(I2
g120
tp424
a(I3
g280
tp425
a(I0
g280
tp426
a(I1
g172
tp427
a(I2
g120
tp428
a(I3
g280
tp429
a(I0
g280
tp430
a(I1
g172
tp431
a(I2
g118
tp432
a(I3
g280
tp433
a(I0
g280
tp434
a(I1
g120
tp435
a(I2
g118
tp436
a(I3
g280
tp437
a(I0
g280
tp438
a(I1
g172
tp439
a(I2
g118
tp440
a(I3
g280
tp441
a(I0
g280
tp442
a(I1
g168
tp443
a(I2
g120
tp444
a(I3
g280
tp445
a(I0
g280
tp446
a(I1
g118
tp447
a(I2
g120
tp448
a(I3
g280
tp449
a(I0
g280
tp450
a(I1
g118
tp451
a(I2
g120
tp452
a(I3
g280
tp453
a(I0
g280
tp454
a(I1
g172
tp455
a(I2
g172
tp456
a(I3
g280
tp457
a(I0
g280
tp458
a(I1
g172
tp459
a(I2
g168
tp460
a(I3
g280
tp461
a(I0
g280
tp462
a(I1
g172
tp463
a(I2
g118
tp464
a(I3
g280
tp465
a(I0
g280
tp466
a(I1
g172
tp467
a(I2
g118
tp468
a(I3
g280
tp469
a(I0
g280
tp470
a(I1
g120
tp471
a(I2
g118
tp472
a(I3
g280
tp473
a(I0
g280
tp474
a(I1
g120
tp475
a(I2
g120
tp476
a(I3
g280
tp477
a(I0
g280
tp478
a(I1
g120
tp479
a(I2
g120
tp480
a(I3
g280
tp481
a(I0
g280
tp482
a(I1
g172
tp483
a(I2
g120
tp484
a(I3
g280
tp485
a(I0
g280
tp486
a(I1
g172
tp487
a(I2
g118
tp488
a(I3
g280
tp489
a(I0
g280
tp490
a(I1
g120
tp491
a(I2
g120
tp492
a(I3
g280
tp493
a(I0
g280
tp494
a(I1
g172
tp495
a(I2
g172
tp496
a(I3
g280
tp497
a(I0
g280
tp498
a(I1
g172
tp499
a(I2
g172
tp500
a(I3
g280
tp501
a(I0
g280
tp502
a(I1
g118
tp503
a(I2
g172
tp504
a(I3
g280
tp505
a(I0
g280
tp506
a(I1
g172
tp507
a(I2
g168
tp508
a(I3
g280
tp509
a(I0
g280
tp510
a(I1
g172
tp511
a(I2
g168
tp512
a(I3
g280
tp513
a(I0
g280
tp514
a(I1
g118
tp515
a(I2
g168
tp516
a(I3
g280
tp517
a(I0
g280
tp518
a(I1
g168
tp519
a(I2
g118
tp520
a(I3
g280
tp521
a(I0
g280
tp522
a(I1
g120
tp523
a(I2
g118
tp524
a(I3
g280
tp525
a(I0
g280
tp526
a(I1
g168
tp527
a(I2
g120
tp528
a(I3
g280
tp529
a(I0
g280
tp530
a(I1
g120
tp531
a(I2
g120
tp532
a(I3
g280
tp533
a(I0
g280
tp534
a(I1
g168
tp535
a(I2
g172
tp536
a(I3
g280
tp537
a(I0
g280
tp538
a(I1
g168
tp539
a(I2
g172
tp540
a(I3
g280
tp541
a(I0
g280
tp542
a(I1
g118
tp543
a(I2
g168
tp544
a(I3
g280
tp545
a(I0
g280
tp546
a(I1
g168
tp547
a(I2
g168
tp548
a(I3
g280
tp549
a(I0
g280
tp550
a(I1
g168
tp551
a(I2
g118
tp552
a(I3
g280
tp553
a(I0
g280
tp554
a(I1
g118
tp555
a(I2
g118
tp556
a(I3
g280
tp557
a(I0
g280
tp558
a(I1
g118
tp559
a(I2
g118
tp560
a(I3
g280
tp561
a(I0
g280
tp562
a(I1
g172
tp563
a(I2
g168
tp564
a(I3
g280
tp565
a(I0
g280
tp566
a(I1
g172
tp567
a(I2
g172
tp568
a(I3
g280
tp569
a(I0
g280
tp570
a(I1
g118
tp571
a(I2
g120
tp572
a(I3
g280
tp573
a(I0
g280
tp574
a(I1
g172
tp575
a(I2
g120
tp576
a(I3
g280
tp577
a(I0
g280
tp578
a(I1
g172
tp579
a(I2
g120
tp580
a(I3
g280
tp581
a(I0
g280
tp582
a(I1
g172
tp583
a(I2
g118
tp584
a(I3
g280
tp585
a(I0
g280
tp586
a(I1
g120
tp587
a(I2
g118
tp588
a(I3
g280
tp589
a(I0
g280
tp590
a(I1
g168
tp591
a(I2
g118
tp592
a(I3
g280
tp593
a(I0
g280
tp594
a(I1
g118
tp595
a(I2
g168
tp596
a(I3
g280
tp597
a(I0
g280
tp598
a(I1
g168
tp599
a(I2
g172
tp600
a(I3
g280
tp601
a(I0
g280
tp602
a(I1
g168
tp603
a(I2
g120
tp604
a(I3
g280
tp605
a(I0
g280
tp606
a(I1
g120
tp607
a(I2
g120
tp608
a(I3
g280
tp609
a(I0
g280
tp610
a(I1
g168
tp611
a(I2
g120
tp612
a(I3
g280
tp613
a(I0
g280
tp614
a(I1
g168
tp615
a(I2
g118
tp616
a(I3
g280
tp617
a(I0
g280
tp618
a(I1
g120
tp619
a(I2
g118
tp620
a(I3
g280
tp621
a(I0
g280
tp622
a(I1
g120
tp623
a(I2
g118
tp624
a(I3
g280
tp625
a(I0
g280
tp626
a(I1
g172
tp627
a(I2
g168
tp628
a(I3
g280
tp629
a(I0
g280
tp630
a(I1
g172
tp631
a(I2
g172
tp632
a(I3
g280
tp633
a(I0
g280
tp634
a(I1
g120
tp635
a(I2
g120
tp636
a(I3
g280
tp637
a(I0
g280
tp638
a(I1
g120
tp639
a(I2
g120
tp640
a(I3
g280
tp641
a(I0
g280
tp642
a(I1
g168
tp643
a(I2
g120
tp644
a(I3
g280
tp645
a(I0
g280
tp646
a(I1
g120
tp647
a(I2
g172
tp648
a(I3
g280
tp649
a(I0
g280
tp650
a(I1
g172
tp651
a(I2
g172
tp652
a(I3
g280
tp653
a(I0
g280
tp654
a(I1
g118
tp655
a(I2
g172
tp656
a(I3
g280
tp657
a(I0
g280
tp658
a(I1
g118
tp659
a(I2
g172
tp660
a(I3
g280
tp661
a(I0
g280
tp662
a(I1
g118
tp663
a(I2
g168
tp664
a(I3
g280
tp665
a(I0
g280
tp666
a(I1
g168
tp667
a(I2
g168
tp668
a(I3
g280
tp669
a(I0
g280
tp670
a(I1
g168
tp671
a(I2
g168
tp672
a(I3
g280
tp673
a(I0
g280
tp674
a(I1
g118
tp675
a(I2
g168
tp676
a(I3
g280
tp677
a(I0
g280
tp678
a(I1
g118
tp679
a(I2
g118
tp680
a(I3
g280
tp681
a(I0
g280
tp682
a(I1
g172
tp683
a(I2
g118
tp684
a(I3
g280
tp685
a(I0
g280
tp686
a(I1
g172
tp687
a(I2
g118
tp688
a(I3
g280
tp689
a(I0
g280
tp690
a(I1
g118
tp691
a(I2
g168
tp692
a(I3
g280
tp693
a(I0
g280
tp694
a(I1
g172
tp695
a(I2
g172
tp696
a(I3
g280
tp697
a(I0
g280
tp698
a(I1
g172
tp699
a(I2
g120
tp700
a(I3
g280
tp701
a(I0
g280
tp702
a(I1
g172
tp703
a(I2
g120
tp704
a(I3
g280
tp705
a(I0
g280
tp706
a(I1
g120
tp707
a(I2
g120
tp708
a(I3
g280
tp709
a(I0
g280
tp710
a(I1
g168
tp711
a(I2
g172
tp712
a(I3
g280
tp713
a(I0
g280
tp714
a(I1
g118
tp715
a(I2
g168
tp716
a(I3
g280
tp717
a(I0
g280
tp718
a(I1
g168
tp719
a(I2
g118
tp720
a(I3
g280
tp721
a(I0
g280
tp722
a(I1
g168
tp723
a(I2
g118
tp724
a(I3
g280
tp725
a(I0
g280
tp726
a(I1
g120
tp727
a(I2
g118
tp728
a(I3
g280
tp729
a(I0
g280
tp730
a(I1
g168
tp731
a(I2
g168
tp732
a(I3
g280
tp733
a(I0
g280
tp734
a(I1
g168
tp735
a(I2
g172
tp736
a(I3
g280
tp737
a(I0
g280
tp738
a(I1
g120
tp739
a(I2
g120
tp740
a(I3
g280
tp741
a(I0
g280
tp742
a(I1
g120
tp743
a(I2
g120
tp744
a(I3
g280
tp745
a(I0
g280
tp746
a(I1
g172
tp747
a(I2
g120
tp748
a(I3
g280
tp749
a(I0
g280
tp750
a(I1
g172
tp751
a(I2
g172
tp752
a(I3
g280
tp753
a(I0
g280
tp754
a(I1
g120
tp755
a(I2
g172
tp756
a(I3
g280
tp757
a(I0
g280
tp758
a(I1
g172
tp759
a(I2
g172
tp760
a(I3
g280
tp761
a(I0
g280
tp762
a(I1
g172
tp763
a(I2
g172
tp764
a(I3
g280
tp765
a(I0
g280
tp766
a(I1
g118
tp767
a(I2
g172
tp768
a(I3
g280
tp769
a(I0
g280
tp770
a(I1
g172
tp771
a(I2
g168
tp772
a(I3
g280
tp773
a(I0
g280
tp774
a(I1
g172
tp775
a(I2
g168
tp776
a(I3
g280
tp777
a(I0
g280
tp778
a(I1
g118
tp779
a(I2
g168
tp780
a(I3
g280
tp781
a(I0
g280
tp782
a(I1
g168
tp783
a(I2
g168
tp784
a(I3
g280
tp785
a(I0
g280
tp786
a(I1
g120
tp787
a(I2
g168
tp788
a(I3
g280
tp789
a(I0
g280
tp790
a(I1
g168
tp791
a(I2
g172
tp792
a(I3
g280
tp793
a(I0
g280
tp794
a(I1
g120
tp795
a(I2
g172
tp796
a(I3
g280
tp797
a(I0
g280
tp798
a(I1
g168
tp799
a(I2
g172
tp800
a(I3
g280
tp801
a(I0
g280
tp802
a(I1
g168
tp803
a(I2
g172
tp804
a(I3
g280
tp805
a(I0
g280
tp806
a(I1
g118
tp807
a(I2
g168
tp808
a(I3
g280
tp809
a(I0
g280
tp810
a(I1
g168
tp811
a(I2
g168
tp812
a(I3
g280
tp813
a(I0
g280
tp814
a(I1
g168
tp815
a(I2
g168
tp816
a(I3
g280
tp817
a(I0
g280
tp818
a(I1
g118
tp819
a(I2
g168
tp820
a(I3
g280
tp821
a(I0
g280
tp822
a(I1
g118
tp823
a(I2
g118
tp824
a(I3
g280
tp825
a(I0
g280
tp826
a(I1
g172
tp827
a(I2
g118
tp828
a(I3
g280
tp829
a(I0
g280
tp830
a(I1
g172
tp831
a(I2
g118
tp832
a(I3
g280
tp833
a(I0
g280
tp834
a(I1
g118
tp835
a(I2
g120
tp836
a(I3
g280
tp837
a(I0
g280
tp838
a(I1
g172
tp839
a(I2
g120
tp840
a(I3
g280
tp841
a(I0
g280
tp842
a(I1
g172
tp843
a(I2
g120
tp844
a(I3
g280
tp845
a(I0
g280
tp846
a(I1
g120
tp847
a(I2
g172
tp848
a(I3
g280
tp849
a(I0
g280
tp850
a(I1
g172
tp851
a(I2
g168
tp852
a(I3
g280
tp853
a(I0
g280
tp854
a(I1
g118
tp855
a(I2
g118
tp856
a(I3
g280
tp857
a(I0
g280
tp858
a(I1
g168
tp859
a(I2
g118
tp860
a(I3
g280
tp861
a(I0
g280
tp862
a(I1
g168
tp863
a(I2
g118
tp864
a(I3
g280
tp865
a(I0
g280
tp866
a(I1
g168
tp867
a(I2
g120
tp868
a(I3
g280
tp869
a(I0
g280
tp870
a(I1
g120
tp871
a(I2
g120
tp872
a(I3
g280
tp873
a(I0
g280
tp874
a(I1
g168
tp875
a(I2
g120
tp876
a(I3
g280
tp877
a(I0
g280
tp878
a(I1
g168
tp879
a(I2
g172
tp880
a(I3
g280
tp881
a(I0
g280
tp882
a(I1
g120
tp883
a(I2
g168
tp884
a(I3
g280
tp885
a(I0
g280
tp886
a(I1
g120
tp887
a(I2
g118
tp888
a(I3
g280
tp889
a(I0
g280
tp890
a(I1
g172
tp891
a(I2
g118
tp892
a(I3
g280
tp893
a(I0
g280
tp894
a(I1
g172
tp895
a(I2
g118
tp896
a(I3
g280
tp897
a(I0
g280
tp898
a(I1
g120
tp899
a(I2
g168
tp900
a(I3
g280
tp901
a(I0
g280
tp902
a(I1
g172
tp903
a(I2
g168
tp904
a(I3
g280
tp905
a(I0
g280
tp906
a(I1
g172
tp907
a(I2
g118
tp908
a(I3
g280
tp909
a(I0
g280
tp910
a(I1
g118
tp911
a(I2
g118
tp912
a(I3
g280
tp913
a(I0
g280
tp914
a(I1
g172
tp915
a(I2
g120
tp916
a(I3
g280
tp917
a(I0
g280
tp918
a(I1
g172
tp919
a(I2
g120
tp920
a(I3
g280
tp921
a(I0
g280
tp922
a(I1
g118
tp923
a(I2
g172
tp924
a(I3
g280
tp925
a(I0
g280
tp926
a(I1
g168
tp927
a(I2
g172
tp928
a(I3
g280
tp929
a(I0
g280
tp930
a(I1
g120
tp931
a(I2
g120
tp932
a(I3
g280
tp933
a(I0
g280
tp934
a(I1
g168
tp935
a(I2
g120
tp936
a(I3
g280
tp937
a(I0
g280
tp938
a(I1
g120
tp939
a(I2
g120
tp940
a(I3
g280
tp941
a(I0
g280
tp942
a(I1
g168
tp943
a(I2
g172
tp944
a(I3
g280
tp945
a(I0
g280
tp946
a(I1
g168
tp947
a(I2
g172
tp948
a(I3
g280
tp949
a(I0
g280
tp950
a(I1
g118
tp951
a(I2
g168
tp952
a(I3
g280
tp953
a(I0
g280
tp954
a(I1
g168
tp955
a(I2
g168
tp956
a(I3
g280
tp957
a(I0
g280
tp958
a(I1
g168
tp959
a(I2
g118
tp960
a(I3
g280
tp961
a(I0
g280
tp962
a(I1
g118
tp963
a(I2
g118
tp964
a(I3
g280
tp965
a(I0
g280
tp966
a(I1
g118
tp967
a(I2
g118
tp968
a(I3
g280
tp969
a(I0
g280
tp970
a(I1
g172
tp971
a(I2
g168
tp972
a(I3
g280
tp973
a(I0
g280
tp974
a(I1
g172
tp975
a(I2
g172
tp976
a(I3
g280
tp977
a(I0
g280
tp978
a(I1
g118
tp979
a(I2
g120
tp980
a(I3
g280
tp981
a(I0
g280
tp982
a(I1
g172
tp983
a(I2
g120
tp984
a(I3
g280
tp985
a(I0
g280
tp986
a(I1
g172
tp987
a(I2
g120
tp988
a(I3
g280
tp989
a(I0
g280
tp990
a(I1
g172
tp991
a(I2
g118
tp992
a(I3
g280
tp993
a(I0
g280
tp994
a(I1
g172
tp995
a(I2
g118
tp996
a(I3
g280
tp997
a(I0
g280
tp998
a(I1
g172
tp999
a(I2
g118
tp1000
a(I3
g280
tp1001
a(I0
g280
tp1002
a(I1
g172
tp1003
a(I2
g120
tp1004
a(I3
g280
tp1005
a(I0
g280
tp1006
a(I1
g120
tp1007
a(I2
g120
tp1008
a(I3
g280
tp1009
a(I0
g280
tp1010
a(I1
g120
tp1011
a(I2
g120
tp1012
a(I3
g280
tp1013
a(I0
g280
tp1014
a(I1
g168
tp1015
a(I2
g118
tp1016
a(I3
g280
tp1017
a(I0
g280
tp1018
a(I1
g168
tp1019
a(I2
g118
tp1020
a(I3
g280
tp1021
a(I0
g280
tp1022
a(I1
g120
tp1023
a(I2
g118
tp1024
a(I3
g280
tp1025
a(I0
g280
tp1026
a(I1
g168
tp1027
a(I2
g120
tp1028
a(I3
g280
tp1029
a(I0
g280
tp1030
a(I1
g168
tp1031
a(I2
g120
tp1032
a(I3
g280
tp1033
a(I0
g280
tp1034
a(I1
g120
tp1035
a(I2
g120
tp1036
a(I3
g280
tp1037
a(I0
g280
tp1038
a(I1
g168
tp1039
a(I2
g172
tp1040
a(I3
g280
tp1041
a(I0
g280
tp1042
a(I1
g168
tp1043
a(I2
g172
tp1044
a(I3
g280
tp1045
a(I0
g280
tp1046
a(I1
g118
tp1047
a(I2
g168
tp1048
a(I3
g280
tp1049
a(I0
g280
tp1050
a(I1
g168
tp1051
a(I2
g168
tp1052
a(I3
g280
tp1053
a(I0
g280
tp1054
a(I1
g168
tp1055
a(I2
g118
tp1056
a(I3
g280
tp1057
a(I0
g280
tp1058
a(I1
g118
tp1059
a(I2
g118
tp1060
a(I3
g280
tp1061
a(I0
g280
tp1062
a(I1
g118
tp1063
a(I2
g118
tp1064
a(I3
g280
tp1065
a(I0
g280
tp1066
a(I1
g172
tp1067
a(I2
g168
tp1068
a(I3
g280
tp1069
a(I0
g280
tp1070
a(I1
g172
tp1071
a(I2
g172
tp1072
a(I3
g280
tp1073
a(I0
g280
tp1074
a(I1
g118
tp1075
a(I2
g120
tp1076
a(I3
g280
tp1077
a(I0
g280
tp1078
a(I1
g172
tp1079
a(I2
g120
tp1080
a(I3
g280
tp1081
a(I0
g280
tp1082
a(I1
g172
tp1083
a(I2
g120
tp1084
a(I3
g280
tp1085
a(I0
g280
tp1086
a(I1
g172
tp1087
a(I2
g172
tp1088
a(I3
g280
tp1089
a(I0
g280
tp1090
a(I1
g120
tp1091
a(I2
g168
tp1092
a(I3
g280
tp1093
a(I0
g280
tp1094
a(I1
g168
tp1095
a(I2
g118
tp1096
a(I3
g280
tp1097
a(I0
g280
tp1098
a(I1
g118
tp1099
a(I2
g118
tp1100
a(I3
g280
tp1101
a(I0
g280
tp1102
a(I1
g168
tp1103
a(I2
g118
tp1104
a(I3
g280
tp1105
a(I0
g280
tp1106
a(I1
g168
tp1107
a(I2
g168
tp1108
a(I3
g280
tp1109
a(I0
g280
tp1110
a(I1
g120
tp1111
a(I2
g172
tp1112
a(I3
g280
tp1113
a(I0
g280
tp1114
a(I1
g168
tp1115
a(I2
g120
tp1116
a(I3
g280
tp1117
a(I0
g280
tp1118
a(I1
g168
tp1119
a(I2
g120
tp1120
a(I3
g280
tp1121
a(I0
g280
tp1122
a(I1
g120
tp1123
a(I2
g120
tp1124
a(I3
g280
tp1125
a(I0
g280
tp1126
a(I1
g120
tp1127
a(I2
g118
tp1128
a(I3
g280
tp1129
a(I0
g280
tp1130
a(I1
g172
tp1131
a(I2
g118
tp1132
a(I3
g280
tp1133
a(I0
g280
tp1134
a(I1
g172
tp1135
a(I2
g118
tp1136
a(I3
g280
tp1137
a(I0
g280
tp1138
a(I1
g120
tp1139
a(I2
g120
tp1140
a(I3
g280
tp1141
a(I0
g280
tp1142
a(I1
g172
tp1143
a(I2
g120
tp1144
a(I3
g280
tp1145
a(I0
g280
tp1146
a(I1
g172
tp1147
a(I2
g120
tp1148
a(I3
g280
tp1149
a(I0
g280
tp1150
a(I1
g118
tp1151
a(I2
g172
tp1152
a(I3
g280
tp1153
a(I0
g280
tp1154
a(I1
g172
tp1155
a(I2
g168
tp1156
a(I3
g280
tp1157
a(I0
g280
tp1158
a(I1
g172
tp1159
a(I2
g118
tp1160
a(I3
g280
tp1161
a(I0
g280
tp1162
a(I1
g118
tp1163
a(I2
g118
tp1164
a(I3
g280
tp1165
a(I0
g280
tp1166
a(I1
g168
tp1167
a(I2
g118
tp1168
a(I3
g280
tp1169
a(I0
g280
tp1170
a(I1
g118
tp1171
a(I2
g120
tp1172
a(I3
g280
tp1173
a(I0
g280
tp1174
a(I1
g118
tp1175
a(I2
g120
tp1176
a(I3
g280
tp1177
a(I0
g280
tp1178
a(I1
g168
tp1179
a(I2
g120
tp1180
a(I3
g280
tp1181
a(I0
g280
tp1182
a(I1
g168
tp1183
a(I2
g172
tp1184
a(I3
g280
tp1185
a(I0
g280
tp1186
a(I1
g168
tp1187
a(I2
g168
tp1188
a(I3
g280
tp1189
a(I0
g280
tp1190
a(I1
g120
tp1191
a(I2
g118
tp1192
a(I3
g280
tp1193
a(I0
g280
tp1194
a(I1
g168
tp1195
a(I2
g118
tp1196
a(I3
g280
tp1197
a(I0
g280
tp1198
a(I1
g168
tp1199
a(I2
g118
tp1200
a(I3
g280
tp1201
a(I0
g280
tp1202
a(I1
g120
tp1203
a(I2
g168
tp1204
a(I3
g280
tp1205
a(I0
g280
tp1206
a(I1
g120
tp1207
a(I2
g172
tp1208
a(I3
g280
tp1209
a(I0
g280
tp1210
a(I1
g172
tp1211
a(I2
g120
tp1212
a(I3
g280
tp1213
a(I0
g280
tp1214
a(I1
g172
tp1215
a(I2
g120
tp1216
a(I3
g280
tp1217
a(I0
g280
tp1218
a(I1
g120
tp1219
a(I2
g120
tp1220
a(I3
g280
tp1221
a(I0
g280
tp1222
a(I1
g172
tp1223
a(I2
g172
tp1224
a(I3
g280
tp1225
a(I0
g280
tp1226
a(I1
g172
tp1227
a(I2
g172
tp1228
a(I3
g280
tp1229
a(I0
g280
tp1230
a(I1
g118
tp1231
a(I2
g172
tp1232
a(I3
g280
tp1233
a(I0
g280
tp1234
a(I1
g172
tp1235
a(I2
g168
tp1236
a(I3
g280
tp1237
a(I0
g280
tp1238
a(I1
g172
tp1239
a(I2
g168
tp1240
a(I3
g280
tp1241
a(I0
g280
tp1242
a(I1
g118
tp1243
a(I2
g168
tp1244
a(I3
g280
tp1245
a(I0
g280
tp1246
a(I1
g168
tp1247
a(I2
g118
tp1248
a(I3
g280
tp1249
a(I0
g280
tp1250
a(I1
g118
tp1251
a(I2
g118
tp1252
a(I3
g280
tp1253
a(I0
g280
tp1254
a(I1
g168
tp1255
a(I2
g118
tp1256
a(I3
g280
tp1257
a(I0
g280
tp1258
a(I1
g118
tp1259
a(I2
g168
tp1260
a(I3
g280
tp1261
a(I0
g280
tp1262
a(I1
g168
tp1263
a(I2
g172
tp1264
a(I3
g280
tp1265
a(I0
g280
tp1266
a(I1
g168
tp1267
a(I2
g120
tp1268
a(I3
g280
tp1269
a(I0
g280
tp1270
a(I1
g120
tp1271
a(I2
g120
tp1272
a(I3
g280
tp1273
a(I0
g280
tp1274
a(I1
g168
tp1275
a(I2
g120
tp1276
a(I3
g280
tp1277
a(I0
g280
tp1278
a(I1
g168
tp1279
a(I2
g172
tp1280
a(I3
g280
tp1281
a(I0
g280
tp1282
a(I1
g120
tp1283
a(I2
g168
tp1284
a(I3
g280
tp1285
a(I0
g280
tp1286
a(I1
g120
tp1287
a(I2
g118
tp1288
a(I3
g280
tp1289
a(I0
g280
tp1290
a(I1
g172
tp1291
a(I2
g118
tp1292
a(I3
g280
tp1293
a(I0
g280
tp1294
a(I1
g172
tp1295
a(I2
g118
tp1296
a(I3
g280
tp1297
a(I0
g280
tp1298
a(I1
g120
tp1299
a(I2
g120
tp1300
a(I3
g280
tp1301
a(I0
g280
tp1302
a(I1
g172
tp1303
a(I2
g120
tp1304
a(I3
g280
tp1305
a(I0
g280
tp1306
a(I1
g172
tp1307
a(I2
g120
tp1308
a(I3
g280
tp1309
a(I0
g280
tp1310
a(I1
g118
tp1311
a(I2
g172
tp1312
a(I3
g280
tp1313
a(I0
g280
tp1314
a(I1
g172
tp1315
a(I2
g168
tp1316
a(I3
g280
tp1317
a(I0
g280
tp1318
a(I1
g172
tp1319
a(I2
g118
tp1320
a(I3
g280
tp1321
a(I0
g280
tp1322
asS'length'
p1323
I1200
sS'agents'
p1324
(lp1325
(igame
Agent
p1326
(dp1327
S'index'
p1328
I0
sba(igame
Agent
p1329
(dp1330
g1328
I0
sba(igame
Agent
p1331
(dp1332
g1328
I0
sba(igame
Agent
p1333
(dp1334
g1328
I0
sbasS'redTeamName'
p1335
S'pacmanteam'
p1336
s.