(dp1
S'layout'
p2
(ilayout
Layout
p3
(dp4
S'capsules'
p5
(lp6
(I6
I5
tp7
a(I25
I10
tp8
asS'numGhosts'
p9
I4
sS'food'
p10
(igame
Grid
p11
(dp12
S'CELLS_PER_INT'
p13
I30
sS'width'
p14
I32
sS'data'
p15
(lp16
(lp17
I00
aI00
aI00
aI00
aI00
aI00
aI00
aI00
aI00
aI00
aI00
aI00
aI00
aI00
aI00
aI00
aa(lp18
I00
aI00
aI00
aI00
aI00
aI00
aI00
aI00
aI00
aI00
aI00
aI00
aI00
aI00
aI00
aI00
aa(lp19
I00
aI00
aI00
aI00
aI00
aI00
aI00
aI00
aI00
aI00
aI00
aI00
aI00
aI00
aI00
aI00
aa(lp20
I00
aI01
aI01
aI00
aI00
aI00
aI00
aI00
aI01
aI00
aI00
aI00
aI00
aI00
aI00
aI00
aa(lp21
I00
aI00
aI00
aI00
aI00
aI00
aI00
aI00
aI00
aI00
aI00
aI00
aI00
aI00
aI00
aI00
aa(lp22
I00
aI01
aI00
aI00
aI00
aI00
aI00
aI00
aI00
aI00
aI00
aI00
aI01
aI00
aI01
aI00
aa(lp23
I00
aI00
aI00
aI00
aI00
aI00
aI00
aI00
aI00
aI00
aI00
aI00
aI00
aI00
aI00
aI00
aa(lp24
I00
aI00
aI00
aI01
aI00
aI00
aI00
aI00
aI01
aI01
aI00
aI00
aI00
aI00
aI00
aI00
aa(lp25
I00
aI00
aI00
aI01
aI00
aI00
aI00
aI00
aI00
aI01
aI00
aI00
aI00
aI00
aI01
aI00
aa(lp26
I00
aI00
aI00
aI00
aI00
aI01
aI00
aI00
aI00
aI00
aI00
aI01
aI00
aI00
aI00
aI00
aa(lp27
I00
aI00
aI00
aI01
aI00
aI00
aI00
aI01
aI00
aI01
aI00
aI01
aI00
aI00
aI01
aI00
aa(lp28
I00
aI00
aI00
aI00
aI00
aI00
aI00
aI00
aI00
aI00
aI00
aI00
aI00
aI00
aI00
aI00
aa(lp29
I00
aI00
aI00
aI00
aI00
aI00
aI00
aI00
aI00
aI00
aI00
aI00
aI00
aI00
aI00
aI00
aa(lp30
I00
aI00
aI00
aI00
aI00
aI00
aI00
aI00
aI00
aI00
aI00
aI00
aI00
aI00
aI00
aI00
aa(lp31
I00
aI00
aI00
aI00
aI00
aI00
aI00
aI00
aI00
aI01
aI00
aI00
aI00
aI00
aI00
aI00
aa(lp32
I00
aI00
aI00
aI00
aI00
aI00
aI00
aI00
aI00
aI00
aI00
aI00
aI00
aI00
aI00
aI00
aa(lp33
I00
aI00
aI00
aI00
aI00
aI00
aI00
aI00
aI00
aI00
aI00
aI00
aI00
aI00
aI00
aI00
aa(lp34
I00
aI00
aI00
aI00
aI00
aI00
aI01
aI00
aI00
aI00
aI00
aI00
aI00
aI00
aI00
aI00
aa(lp35
I00
aI00
aI00
aI00
aI00
aI00
aI00
aI00
aI00
aI00
aI00
aI00
aI00
aI00
aI00
aI00
aa(lp36
I00
aI00
aI00
aI00
aI00
aI00
aI00
aI00
aI00
aI00
aI00
aI00
aI00
aI00
aI00
aI00
aa(lp37
I00
aI00
aI00
aI00
aI00
aI00
aI00
aI00
aI00
aI00
aI00
aI00
aI00
aI00
aI00
aI00
aa(lp38
I00
aI01
aI00
aI00
aI01
aI00
aI01
aI00
aI01
aI00
aI00
aI00
aI01
aI00
aI00
aI00
aa(lp39
I00
aI00
aI00
aI00
aI01
aI00
aI00
aI00
aI00
aI00
aI01
aI00
aI00
aI00
aI00
aI00
aa(lp40
I00
aI01
aI00
aI00
aI00
aI00
aI01
aI00
aI00
aI00
aI00
aI00
aI01
aI00
aI00
aI00
aa(lp41
I00
aI00
aI00
aI00
aI00
aI00
aI01
aI01
aI00
aI00
aI00
aI00
aI01
aI00
aI00
aI00
aa(lp42
I00
aI00
aI00
aI00
aI00
aI00
aI00
aI00
aI00
aI00
aI00
aI00
aI00
aI00
aI00
aI00
aa(lp43
I00
aI01
aI00
aI01
aI00
aI00
aI00
aI00
aI00
aI00
aI00
aI00
aI00
aI00
aI01
aI00
aa(lp44
I00
aI00
aI00
aI00
aI00
aI00
aI00
aI00
aI00
aI00
aI00
aI00
aI00
aI00
aI00
aI00
aa(lp45
I00
aI00
aI00
aI00
aI00
aI00
aI00
aI01
aI00
aI00
aI00
aI00
aI00
aI01
aI01
aI00
aa(lp46
I00
aI00
aI00
aI00
aI00
aI00
aI00
aI00
aI00
aI00
aI00
aI00
aI00
aI00
aI00
aI00
aa(lp47
I00
aI00
aI00
aI00
aI00
aI00
aI00
aI00
aI00
aI00
aI00
aI00
aI00
aI00
aI00
aI00
aa(lp48
I00
aI00
aI00
aI00
aI00
aI00
aI00
aI00
aI00
aI00
aI00
aI00
aI00
aI00
aI00
aI00
aasS'height'
p49
I16
sbsS'agentPositions'
p50
(lp51
(I00
(I1
I2
tp52
tp53
a(I00
(I30
I13
tp54
tp55
a(I00
(I1
I1
tp56
tp57
a(I00
(I30
I14
tp58
tp59
asg49
I16
sg14
I32
sS'walls'
p60
(igame
Grid
p61
(dp62
g13
I30
sg14
I32
sg15
(lp63
(lp64
I01
aI01
aI01
aI01
aI01
aI01
aI01
aI01
aI01
aI01
aI01
aI01
aI01
aI01
aI01
aI01
aa(lp65
I01
aI00
aI00
aI00
aI00
aI00
aI00
aI00
aI00
aI00
aI00
aI00
aI00
aI00
aI00
aI01
aa(lp66
I01
aI01
aI01
aI01
aI01
aI01
aI01
aI01
aI01
aI01
aI01
aI01
aI01
aI01
aI00
aI01
aa(lp67
I01
aI00
aI00
aI00
aI00
aI00
aI00
aI01
aI00
aI01
aI00
aI00
aI00
aI00
aI00
aI01
aa(lp68
I01
aI01
aI01
aI01
aI01
aI01
aI00
aI00
aI00
aI00
aI00
aI01
aI01
aI01
aI01
aI01
aa(lp69
I01
aI00
aI00
aI00
aI00
aI00
aI00
aI00
aI01
aI01
aI00
aI01
aI00
aI01
aI00
aI01
aa(lp70
I01
aI01
aI00
aI01
aI01
aI00
aI01
aI01
aI01
aI00
aI00
aI00
aI00
aI00
aI00
aI01
aa(lp71
I01
aI00
aI00
aI00
aI01
aI00
aI00
aI01
aI00
aI00
aI01
aI01
aI01
aI00
aI01
aI01
aa(lp72
I01
aI00
aI01
aI00
aI01
aI01
aI00
aI01
aI01
aI00
aI01
aI00
aI00
aI00
aI00
aI01
aa(lp73
I01
aI00
aI01
aI01
aI01
aI00
aI00
aI01
aI01
aI01
aI01
aI00
aI01
aI00
aI01
aI01
aa(lp74
I01
aI00
aI01
aI00
aI01
aI01
aI00
aI00
aI01
aI00
aI01
aI00
aI01
aI00
aI00
aI01
aa(lp75
I01
aI00
aI00
aI00
aI00
aI01
aI00
aI01
aI01
aI00
aI01
aI01
aI01
aI00
aI01
aI01
aa(lp76
I01
aI01
aI00
aI01
aI00
aI01
aI00
aI00
aI00
aI00
aI00
aI00
aI00
aI00
aI00
aI01
aa(lp77
I01
aI00
aI00
aI01
aI00
aI00
aI00
aI00
aI00
aI01
aI01
aI01
aI00
aI01
aI00
aI01
aa(lp78
I01
aI00
aI01
aI01
aI01
aI00
aI01
aI00
aI00
aI00
aI01
aI00
aI00
aI01
aI00
aI01
aa(lp79
I01
aI00
aI00
aI01
aI00
aI00
aI01
aI00
aI00
aI01
aI01
aI00
aI00
aI00
aI00
aI01
aa(lp80
I01
aI00
aI00
aI00
aI00
aI01
aI01
aI00
aI00
aI01
aI00
aI00
aI01
aI00
aI00
aI01
aa(lp81
I01
aI00
aI01
aI00
aI00
aI01
aI00
aI00
aI00
aI01
aI00
aI01
aI01
aI01
aI00
aI01
aa(lp82
I01
aI00
aI01
aI00
aI01
aI01
aI01
aI00
aI00
aI00
aI00
aI00
aI01
aI00
aI00
aI01
aa(lp83
I01
aI00
aI00
aI00
aI00
aI00
aI00
aI00
aI00
aI00
aI01
aI00
aI01
aI00
aI01
aI01
aa(lp84
I01
aI01
aI00
aI01
aI01
aI01
aI00
aI01
aI01
aI00
aI01
aI00
aI00
aI00
aI00
aI01
aa(lp85
I01
aI00
aI00
aI01
aI00
aI01
aI00
aI01
aI00
aI00
aI01
aI01
aI00
aI01
aI00
aI01
aa(lp86
I01
aI01
aI00
aI01
aI00
aI01
aI01
aI01
aI01
aI00
aI00
aI01
aI01
aI01
aI00
aI01
aa(lp87
I01
aI00
aI00
aI00
aI00
aI01
aI00
aI01
aI01
aI00
aI01
aI01
aI00
aI01
aI00
aI01
aa(lp88
I01
aI01
aI00
aI01
aI01
aI01
aI00
aI00
aI01
aI00
aI00
aI01
aI00
aI00
aI00
aI01
aa(lp89
I01
aI00
aI00
aI00
aI00
aI00
aI00
aI01
aI01
aI01
aI00
aI01
aI01
aI00
aI01
aI01
aa(lp90
I01
aI00
aI01
aI00
aI01
aI00
aI01
aI01
aI00
aI00
aI00
aI00
aI00
aI00
aI00
aI01
aa(lp91
I01
aI01
aI01
aI01
aI01
aI00
aI00
aI00
aI00
aI00
aI01
aI01
aI01
aI01
aI01
aI01
aa(lp92
I01
aI00
aI00
aI00
aI00
aI00
aI01
aI00
aI01
aI00
aI00
aI00
aI00
aI00
aI00
aI01
aa(lp93
I01
aI00
aI01
aI01
aI01
aI01
aI01
aI01
aI01
aI01
aI01
aI01
aI01
aI01
aI01
aI01
aa(lp94
I01
aI00
aI00
aI00
aI00
aI00
aI00
aI00
aI00
aI00
aI00
aI00
aI00
aI00
aI00
aI01
aa(lp95
I01
aI01
aI01
aI01
aI01
aI01
aI01
aI01
aI01
aI01
aI01
aI01
aI01
aI01
aI01
aI01
aasg49
I16
sbsS'layoutText'
p96
(lp97
S'%%%%%%%%%%%%%%%%%%%%%%%%%%%%%%%%'
p98
aS'%   %. %.%.%       %     %.%.%4%'
p99
aS'% % %%       %%  %   %%%   %.%2%'
p100
aS'% % %. % %%%    %%%% .%..% % % %'
p101
aS'% % %% % ..% %   %   %%%%% % % %'
p102
aS'% %    %%%%% %%%   %%%.% o % % %'
p103
aS'% %% % ..%.  %.%%%       %   % %'
p104
aS'% %. %%.%%%%        %.%%%%  %% %'
p105
aS'% %%  %%%%.%        %%%%.%% .% %'
p106
aS'% %   %       %%%.%  .%.. % %% %'
p107
aS'% % % o %.%%%   %%% %%%%%    % %'
p108
aS'% % % %%%%%   %   % %.. % %% % %'
p109
aS'% % % %..%. %%%%    %%% % .% % %'
p110
aS'%1%.%   %%%   %  %%       %% % %'
p111
aS'%3%.%.%     %       %.%.% .%   %'
p112
aS'%%%%%%%%%%%%%%%%%%%%%%%%%%%%%%%%'
p113
asbsS'blueTeamName'
p114
S'Steve'
p115
sS'actions'
p116
(lp117
(I0
S'North'
p118
tp119
a(I1
S'Stop'
p120
tp121
a(I2
g118
tp122
a(I3
S'South'
p123
tp124
a(I0
g118
tp125
a(I1
g120
tp126
a(I2
g123
tp127
a(I3
g123
tp128
a(I0
g118
tp129
a(I1
g123
tp130
a(I2
g118
tp131
a(I3
g118
tp132
a(I0
g118
tp133
a(I1
g123
tp134
a(I2
g118
tp135
a(I3
g120
tp136
a(I0
g118
tp137
a(I1
g118
tp138
a(I2
g118
tp139
a(I3
g123
tp140
a(I0
g118
tp141
a(I1
g120
tp142
a(I2
g118
tp143
a(I3
g120
tp144
a(I0
g118
tp145
a(I1
g123
tp146
a(I2
g118
tp147
a(I3
g123
tp148
a(I0
g118
tp149
a(I1
g123
tp150
a(I2
g118
tp151
a(I3
g120
tp152
a(I0
g118
tp153
a(I1
g123
tp154
a(I2
g118
tp155
a(I3
g120
tp156
a(I0
g118
tp157
a(I1
g123
tp158
a(I2
g118
tp159
a(I3
g120
tp160
a(I0
g118
tp161
a(I1
g118
tp162
a(I2
g118
tp163
a(I3
g120
tp164
a(I0
g118
tp165
a(I1
g118
tp166
a(I2
g118
tp167
a(I3
g118
tp168
a(I0
S'East'
p169
tp170
a(I1
g118
tp171
a(I2
g118
tp172
a(I3
g118
tp173
a(I0
g169
tp174
a(I1
g118
tp175
a(I2
g118
tp176
a(I3
g123
tp177
a(I0
g123
tp178
a(I1
g118
tp179
a(I2
g118
tp180
a(I3
g118
tp181
a(I0
g123
tp182
a(I1
g120
tp183
a(I2
g169
tp184
a(I3
g123
tp185
a(I0
g123
tp186
a(I1
g120
tp187
a(I2
g169
tp188
a(I3
g120
tp189
a(I0
g123
tp190
a(I1
g123
tp191
a(I2
g123
tp192
a(I3
g120
tp193
a(I0
g169
tp194
a(I1
g118
tp195
a(I2
g123
tp196
a(I3
g120
tp197
a(I0
g123
tp198
a(I1
g123
tp199
a(I2
g123
tp200
a(I3
g120
tp201
a(I0
g123
tp202
a(I1
g123
tp203
a(I2
g123
tp204
a(I3
g118
tp205
a(I0
g123
tp206
a(I1
g120
tp207
a(I2
g169
tp208
a(I3
g120
tp209
a(I0
g169
tp210
a(I1
g120
tp211
a(I2
g123
tp212
a(I3
g118
tp213
a(I0
g123
tp214
a(I1
g118
tp215
a(I2
g123
tp216
a(I3
g120
tp217
a(I0
g123
tp218
a(I1
g120
tp219
a(I2
g123
tp220
a(I3
g120
tp221
a(I0
g169
tp222
a(I1
g123
tp223
a(I2
g169
tp224
a(I3
g120
tp225
a(I0
g169
tp226
a(I1
g120
tp227
a(I2
g123
tp228
a(I3
g123
tp229
a(I0
g118
tp230
a(I1
g118
tp231
a(I2
g123
tp232
a(I3
g123
tp233
a(I0
g169
tp234
a(I1
g118
tp235
a(I2
g169
tp236
a(I3
g123
tp237
a(I0
g169
tp238
a(I1
g123
tp239
a(I2
g169
tp240
a(I3
g123
tp241
a(I0
g169
tp242
a(I1
g123
tp243
a(I2
g118
tp244
a(I3
g123
tp245
a(I0
g169
tp246
a(I1
g120
tp247
a(I2
g169
tp248
a(I3
g120
tp249
a(I0
g169
tp250
a(I1
g118
tp251
a(I2
g169
tp252
a(I3
g123
tp253
a(I0
g169
tp254
a(I1
g120
tp255
a(I2
g169
tp256
a(I3
g120
tp257
a(I0
g118
tp258
a(I1
g123
tp259
a(I2
g169
tp260
a(I3
g120
tp261
a(I0
g169
tp262
a(I1
g120
tp263
a(I2
g169
tp264
a(I3
g118
tp265
a(I0
g169
tp266
a(I1
g118
tp267
a(I2
g118
tp268
a(I3
g120
tp269
a(I0
g169
tp270
a(I1
g123
tp271
a(I2
g169
tp272
a(I3
g118
tp273
a(I0
g169
tp274
a(I1
g118
tp275
a(I2
g169
tp276
a(I3
g123
tp277
a(I0
g123
tp278
a(I1
g120
tp279
a(I2
g169
tp280
a(I3
g120
tp281
a(I0
g118
tp282
a(I1
g123
tp283
a(I2
g118
tp284
a(I3
g123
tp285
a(I0
g169
tp286
a(I1
g123
tp287
a(I2
g123
tp288
a(I3
g123
tp289
a(I0
g169
tp290
a(I1
g118
tp291
a(I2
g169
tp292
a(I3
g120
tp293
a(I0
g123
tp294
a(I1
g120
tp295
a(I2
g169
tp296
a(I3
g123
tp297
a(I0
g169
tp298
a(I1
g118
tp299
a(I2
g169
tp300
a(I3
g118
tp301
a(I0
g169
tp302
a(I1
g118
tp303
a(I2
g118
tp304
a(I3
g123
tp305
a(I0
S'West'
p306
tp307
a(I1
g123
tp308
a(I2
g118
tp309
a(I3
g123
tp310
a(I0
g306
tp311
a(I1
g123
tp312
a(I2
g169
tp313
a(I3
g123
tp314
a(I0
g118
tp315
a(I1
g120
tp316
a(I2
g169
tp317
a(I3
g123
tp318
a(I0
g118
tp319
a(I1
g120
tp320
a(I2
g169
tp321
a(I3
g118
tp322
a(I0
g118
tp323
a(I1
g123
tp324
a(I2
g123
tp325
a(I3
g118
tp326
a(I0
g169
tp327
a(I1
g120
tp328
a(I2
g118
tp329
a(I3
g120
tp330
a(I0
g169
tp331
a(I1
g118
tp332
a(I2
g169
tp333
a(I3
g123
tp334
a(I0
g169
tp335
a(I1
g120
tp336
a(I2
g118
tp337
a(I3
g118
tp338
a(I0
g169
tp339
a(I1
g123
tp340
a(I2
g123
tp341
a(I3
g120
tp342
a(I0
g169
tp343
a(I1
g118
tp344
a(I2
g306
tp345
a(I3
g118
tp346
a(I0
g118
tp347
a(I1
g118
tp348
a(I2
g306
tp349
a(I3
g123
tp350
a(I0
g169
tp351
a(I1
g118
tp352
a(I2
g306
tp353
a(I3
g118
tp354
a(I0
g169
tp355
a(I1
g120
tp356
a(I2
g306
tp357
a(I3
g120
tp358
a(I0
g118
tp359
a(I1
g123
tp360
a(I2
g118
tp361
a(I3
g123
tp362
a(I0
g118
tp363
a(I1
g118
tp364
a(I2
g118
tp365
a(I3
g120
tp366
a(I0
g118
tp367
a(I1
g123
tp368
a(I2
g169
tp369
a(I3
g123
tp370
a(I0
g118
tp371
a(I1
g120
tp372
a(I2
g169
tp373
a(I3
g118
tp374
a(I0
g123
tp375
a(I1
g118
tp376
a(I2
g118
tp377
a(I3
g118
tp378
a(I0
g306
tp379
a(I1
g120
tp380
a(I2
g169
tp381
a(I3
g120
tp382
a(I0
g306
tp383
a(I1
g118
tp384
a(I2
g306
tp385
a(I3
g118
tp386
a(I0
g123
tp387
a(I1
g120
tp388
a(I2
g118
tp389
a(I3
g123
tp390
a(I0
g306
tp391
a(I1
g123
tp392
a(I2
g118
tp393
a(I3
g120
tp394
a(I0
g169
tp395
a(I1
g118
tp396
a(I2
g169
tp397
a(I3
g118
tp398
a(I0
g118
tp399
a(I1
g120
tp400
a(I2
g169
tp401
a(I3
g120
tp402
a(I0
g169
tp403
a(I1
g120
tp404
a(I2
g169
tp405
a(I3
g120
tp406
a(I0
g169
tp407
a(I1
g120
tp408
a(I2
g169
tp409
a(I3
g120
tp410
a(I0
g123
tp411
a(I1
g123
tp412
a(I2
g123
tp413
a(I3
g120
tp414
a(I0
g123
tp415
a(I1
g118
tp416
a(I2
g169
tp417
a(I3
g120
tp418
a(I0
g123
tp419
a(I1
g120
tp420
a(I2
g169
tp421
a(I3
g118
tp422
a(I0
g123
tp423
a(I1
g123
tp424
a(I2
g123
tp425
a(I3
g120
tp426
a(I0
g123
tp427
a(I1
g120
tp428
a(I2
g123
tp429
a(I3
g118
tp430
a(I0
g169
tp431
a(I1
g123
tp432
a(I2
g123
tp433
a(I3
g118
tp434
a(I0
g123
tp435
a(I1
g120
tp436
a(I2
g123
tp437
a(I3
g120
tp438
a(I0
g169
tp439
a(I1
g123
tp440
a(I2
g169
tp441
a(I3
g123
tp442
a(I0
g306
tp443
a(I1
g118
tp444
a(I2
g169
tp445
a(I3
g120
tp446
a(I0
g123
tp447
a(I1
g118
tp448
a(I2
g118
tp449
a(I3
g123
tp450
a(I0
g123
tp451
a(I1
g123
tp452
a(I2
g118
tp453
a(I3
g118
tp454
a(I0
g306
tp455
a(I1
g123
tp456
a(I2
g118
tp457
a(I3
g118
tp458
a(I0
g306
tp459
a(I1
g118
tp460
a(I2
g118
tp461
a(I3
g123
tp462
a(I0
g118
tp463
a(I1
g118
tp464
a(I2
g118
tp465
a(I3
g123
tp466
a(I0
g306
tp467
a(I1
g120
tp468
a(I2
g123
tp469
a(I3
g120
tp470
a(I0
g306
tp471
a(I1
g123
tp472
a(I2
g123
tp473
a(I3
g123
tp474
a(I0
g169
tp475
a(I1
g123
tp476
a(I2
g123
tp477
a(I3
g120
tp478
a(I0
g118
tp479
a(I1
g120
tp480
a(I2
g123
tp481
a(I3
g123
tp482
a(I0
g123
tp483
a(I1
g120
tp484
a(I2
g123
tp485
a(I3
g123
tp486
a(I0
g169
tp487
a(I1
g120
tp488
a(I2
g306
tp489
a(I3
g120
tp490
a(I0
g123
tp491
a(I1
g123
tp492
a(I2
g123
tp493
a(I3
g120
tp494
a(I0
g123
tp495
a(I1
g118
tp496
a(I2
g123
tp497
a(I3
g118
tp498
a(I0
g123
tp499
a(I1
g123
tp500
a(I2
g123
tp501
a(I3
g123
tp502
a(I0
g169
tp503
a(I1
g118
tp504
a(I2
g123
tp505
a(I3
g123
tp506
a(I0
g306
tp507
a(I1
g118
tp508
a(I2
g306
tp509
a(I3
g123
tp510
a(I0
g123
tp511
a(I1
g123
tp512
a(I2
g306
tp513
a(I3
g123
tp514
a(I0
g123
tp515
a(I1
g118
tp516
a(I2
g123
tp517
a(I3
g118
tp518
a(I0
g169
tp519
a(I1
g118
tp520
a(I2
g123
tp521
a(I3
g118
tp522
a(I0
g306
tp523
a(I1
g120
tp524
a(I2
g123
tp525
a(I3
g123
tp526
a(I0
g118
tp527
a(I1
g120
tp528
a(I2
g306
tp529
a(I3
g120
tp530
a(I0
g306
tp531
a(I1
g123
tp532
a(I2
g306
tp533
a(I3
g118
tp534
a(I0
g306
tp535
a(I1
g123
tp536
a(I2
g123
tp537
a(I3
g120
tp538
a(I0
g118
tp539
a(I1
g123
tp540
a(I2
g118
tp541
a(I3
g123
tp542
a(I0
g118
tp543
a(I1
g118
tp544
a(I2
g306
tp545
a(I3
g123
tp546
a(I0
g306
tp547
asS'length'
p548
I1200
sS'agents'
p549
(lp550
(igame
Agent
p551
(dp552
S'index'
p553
I0
sba(igame
Agent
p554
(dp555
g553
I0
sba(igame
Agent
p556
(dp557
g553
I0
sba(igame
Agent
p558
(dp559
g553
I0
sbasS'redTeamName'
p560
S'Solo47'
p561
s.