(dp1
S'layout'
p2
(ilayout
Layout
p3
(dp4
S'capsules'
p5
(lp6
(I6
I5
tp7
a(I25
I10
tp8
asS'numGhosts'
p9
I4
sS'food'
p10
(igame
Grid
p11
(dp12
S'CELLS_PER_INT'
p13
I30
sS'width'
p14
I32
sS'data'
p15
(lp16
(lp17
I00
aI00
aI00
aI00
aI00
aI00
aI00
aI00
aI00
aI00
aI00
aI00
aI00
aI00
aI00
aI00
aa(lp18
I00
aI00
aI00
aI00
aI00
aI00
aI00
aI00
aI00
aI00
aI00
aI00
aI00
aI00
aI00
aI00
aa(lp19
I00
aI00
aI00
aI00
aI00
aI00
aI00
aI00
aI00
aI00
aI00
aI00
aI00
aI00
aI00
aI00
aa(lp20
I00
aI01
aI01
aI00
aI00
aI00
aI00
aI00
aI01
aI00
aI00
aI00
aI00
aI00
aI00
aI00
aa(lp21
I00
aI00
aI00
aI00
aI00
aI00
aI00
aI00
aI00
aI00
aI00
aI00
aI00
aI00
aI00
aI00
aa(lp22
I00
aI01
aI00
aI00
aI00
aI00
aI00
aI00
aI00
aI00
aI00
aI00
aI01
aI00
aI01
aI00
aa(lp23
I00
aI00
aI00
aI00
aI00
aI00
aI00
aI00
aI00
aI00
aI00
aI00
aI00
aI00
aI00
aI00
aa(lp24
I00
aI00
aI00
aI01
aI00
aI00
aI00
aI00
aI01
aI01
aI00
aI00
aI00
aI00
aI00
aI00
aa(lp25
I00
aI00
aI00
aI01
aI00
aI00
aI00
aI00
aI00
aI01
aI00
aI00
aI00
aI00
aI01
aI00
aa(lp26
I00
aI00
aI00
aI00
aI00
aI01
aI00
aI00
aI00
aI00
aI00
aI01
aI00
aI00
aI00
aI00
aa(lp27
I00
aI00
aI00
aI01
aI00
aI00
aI00
aI01
aI00
aI01
aI00
aI01
aI00
aI00
aI01
aI00
aa(lp28
I00
aI00
aI00
aI00
aI00
aI00
aI00
aI00
aI00
aI00
aI00
aI00
aI00
aI00
aI00
aI00
aa(lp29
I00
aI00
aI00
aI00
aI00
aI00
aI00
aI00
aI00
aI00
aI00
aI00
aI00
aI00
aI00
aI00
aa(lp30
I00
aI00
aI00
aI00
aI00
aI00
aI00
aI00
aI00
aI00
aI00
aI00
aI00
aI00
aI00
aI00
aa(lp31
I00
aI00
aI00
aI00
aI00
aI00
aI00
aI00
aI00
aI01
aI00
aI00
aI00
aI00
aI00
aI00
aa(lp32
I00
aI00
aI00
aI00
aI00
aI00
aI00
aI00
aI00
aI00
aI00
aI00
aI00
aI00
aI00
aI00
aa(lp33
I00
aI00
aI00
aI00
aI00
aI00
aI00
aI00
aI00
aI00
aI00
aI00
aI00
aI00
aI00
aI00
aa(lp34
I00
aI00
aI00
aI00
aI00
aI00
aI01
aI00
aI00
aI00
aI00
aI00
aI00
aI00
aI00
aI00
aa(lp35
I00
aI00
aI00
aI00
aI00
aI00
aI00
aI00
aI00
aI00
aI00
aI00
aI00
aI00
aI00
aI00
aa(lp36
I00
aI00
aI00
aI00
aI00
aI00
aI00
aI00
aI00
aI00
aI00
aI00
aI00
aI00
aI00
aI00
aa(lp37
I00
aI00
aI00
aI00
aI00
aI00
aI00
aI00
aI00
aI00
aI00
aI00
aI00
aI00
aI00
aI00
aa(lp38
I00
aI01
aI00
aI00
aI01
aI00
aI01
aI00
aI01
aI00
aI00
aI00
aI01
aI00
aI00
aI00
aa(lp39
I00
aI00
aI00
aI00
aI01
aI00
aI00
aI00
aI00
aI00
aI01
aI00
aI00
aI00
aI00
aI00
aa(lp40
I00
aI01
aI00
aI00
aI00
aI00
aI01
aI00
aI00
aI00
aI00
aI00
aI01
aI00
aI00
aI00
aa(lp41
I00
aI00
aI00
aI00
aI00
aI00
aI01
aI01
aI00
aI00
aI00
aI00
aI01
aI00
aI00
aI00
aa(lp42
I00
aI00
aI00
aI00
aI00
aI00
aI00
aI00
aI00
aI00
aI00
aI00
aI00
aI00
aI00
aI00
aa(lp43
I00
aI01
aI00
aI01
aI00
aI00
aI00
aI00
aI00
aI00
aI00
aI00
aI00
aI00
aI01
aI00
aa(lp44
I00
aI00
aI00
aI00
aI00
aI00
aI00
aI00
aI00
aI00
aI00
aI00
aI00
aI00
aI00
aI00
aa(lp45
I00
aI00
aI00
aI00
aI00
aI00
aI00
aI01
aI00
aI00
aI00
aI00
aI00
aI01
aI01
aI00
aa(lp46
I00
aI00
aI00
aI00
aI00
aI00
aI00
aI00
aI00
aI00
aI00
aI00
aI00
aI00
aI00
aI00
aa(lp47
I00
aI00
aI00
aI00
aI00
aI00
aI00
aI00
aI00
aI00
aI00
aI00
aI00
aI00
aI00
aI00
aa(lp48
I00
aI00
aI00
aI00
aI00
aI00
aI00
aI00
aI00
aI00
aI00
aI00
aI00
aI00
aI00
aI00
aasS'height'
p49
I16
sbsS'agentPositions'
p50
(lp51
(I00
(I1
I2
tp52
tp53
a(I00
(I30
I13
tp54
tp55
a(I00
(I1
I1
tp56
tp57
a(I00
(I30
I14
tp58
tp59
asg49
I16
sg14
I32
sS'walls'
p60
(igame
Grid
p61
(dp62
g13
I30
sg14
I32
sg15
(lp63
(lp64
I01
aI01
aI01
aI01
aI01
aI01
aI01
aI01
aI01
aI01
aI01
aI01
aI01
aI01
aI01
aI01
aa(lp65
I01
aI00
aI00
aI00
aI00
aI00
aI00
aI00
aI00
aI00
aI00
aI00
aI00
aI00
aI00
aI01
aa(lp66
I01
aI01
aI01
aI01
aI01
aI01
aI01
aI01
aI01
aI01
aI01
aI01
aI01
aI01
aI00
aI01
aa(lp67
I01
aI00
aI00
aI00
aI00
aI00
aI00
aI01
aI00
aI01
aI00
aI00
aI00
aI00
aI00
aI01
aa(lp68
I01
aI01
aI01
aI01
aI01
aI01
aI00
aI00
aI00
aI00
aI00
aI01
aI01
aI01
aI01
aI01
aa(lp69
I01
aI00
aI00
aI00
aI00
aI00
aI00
aI00
aI01
aI01
aI00
aI01
aI00
aI01
aI00
aI01
aa(lp70
I01
aI01
aI00
aI01
aI01
aI00
aI01
aI01
aI01
aI00
aI00
aI00
aI00
aI00
aI00
aI01
aa(lp71
I01
aI00
aI00
aI00
aI01
aI00
aI00
aI01
aI00
aI00
aI01
aI01
aI01
aI00
aI01
aI01
aa(lp72
I01
aI00
aI01
aI00
aI01
aI01
aI00
aI01
aI01
aI00
aI01
aI00
aI00
aI00
aI00
aI01
aa(lp73
I01
aI00
aI01
aI01
aI01
aI00
aI00
aI01
aI01
aI01
aI01
aI00
aI01
aI00
aI01
aI01
aa(lp74
I01
aI00
aI01
aI00
aI01
aI01
aI00
aI00
aI01
aI00
aI01
aI00
aI01
aI00
aI00
aI01
aa(lp75
I01
aI00
aI00
aI00
aI00
aI01
aI00
aI01
aI01
aI00
aI01
aI01
aI01
aI00
aI01
aI01
aa(lp76
I01
aI01
aI00
aI01
aI00
aI01
aI00
aI00
aI00
aI00
aI00
aI00
aI00
aI00
aI00
aI01
aa(lp77
I01
aI00
aI00
aI01
aI00
aI00
aI00
aI00
aI00
aI01
aI01
aI01
aI00
aI01
aI00
aI01
aa(lp78
I01
aI00
aI01
aI01
aI01
aI00
aI01
aI00
aI00
aI00
aI01
aI00
aI00
aI01
aI00
aI01
aa(lp79
I01
aI00
aI00
aI01
aI00
aI00
aI01
aI00
aI00
aI01
aI01
aI00
aI00
aI00
aI00
aI01
aa(lp80
I01
aI00
aI00
aI00
aI00
aI01
aI01
aI00
aI00
aI01
aI00
aI00
aI01
aI00
aI00
aI01
aa(lp81
I01
aI00
aI01
aI00
aI00
aI01
aI00
aI00
aI00
aI01
aI00
aI01
aI01
aI01
aI00
aI01
aa(lp82
I01
aI00
aI01
aI00
aI01
aI01
aI01
aI00
aI00
aI00
aI00
aI00
aI01
aI00
aI00
aI01
aa(lp83
I01
aI00
aI00
aI00
aI00
aI00
aI00
aI00
aI00
aI00
aI01
aI00
aI01
aI00
aI01
aI01
aa(lp84
I01
aI01
aI00
aI01
aI01
aI01
aI00
aI01
aI01
aI00
aI01
aI00
aI00
aI00
aI00
aI01
aa(lp85
I01
aI00
aI00
aI01
aI00
aI01
aI00
aI01
aI00
aI00
aI01
aI01
aI00
aI01
aI00
aI01
aa(lp86
I01
aI01
aI00
aI01
aI00
aI01
aI01
aI01
aI01
aI00
aI00
aI01
aI01
aI01
aI00
aI01
aa(lp87
I01
aI00
aI00
aI00
aI00
aI01
aI00
aI01
aI01
aI00
aI01
aI01
aI00
aI01
aI00
aI01
aa(lp88
I01
aI01
aI00
aI01
aI01
aI01
aI00
aI00
aI01
aI00
aI00
aI01
aI00
aI00
aI00
aI01
aa(lp89
I01
aI00
aI00
aI00
aI00
aI00
aI00
aI01
aI01
aI01
aI00
aI01
aI01
aI00
aI01
aI01
aa(lp90
I01
aI00
aI01
aI00
aI01
aI00
aI01
aI01
aI00
aI00
aI00
aI00
aI00
aI00
aI00
aI01
aa(lp91
I01
aI01
aI01
aI01
aI01
aI00
aI00
aI00
aI00
aI00
aI01
aI01
aI01
aI01
aI01
aI01
aa(lp92
I01
aI00
aI00
aI00
aI00
aI00
aI01
aI00
aI01
aI00
aI00
aI00
aI00
aI00
aI00
aI01
aa(lp93
I01
aI00
aI01
aI01
aI01
aI01
aI01
aI01
aI01
aI01
aI01
aI01
aI01
aI01
aI01
aI01
aa(lp94
I01
aI00
aI00
aI00
aI00
aI00
aI00
aI00
aI00
aI00
aI00
aI00
aI00
aI00
aI00
aI01
aa(lp95
I01
aI01
aI01
aI01
aI01
aI01
aI01
aI01
aI01
aI01
aI01
aI01
aI01
aI01
aI01
aI01
aasg49
I16
sbsS'layoutText'
p96
(lp97
S'%%%%%%%%%%%%%%%%%%%%%%%%%%%%%%%%'
p98
aS'%   %. %.%.%       %     %.%.%4%'
p99
aS'% % %%       %%  %   %%%   %.%2%'
p100
aS'% % %. % %%%    %%%% .%..% % % %'
p101
aS'% % %% % ..% %   %   %%%%% % % %'
p102
aS'% %    %%%%% %%%   %%%.% o % % %'
p103
aS'% %% % ..%.  %.%%%       %   % %'
p104
aS'% %. %%.%%%%        %.%%%%  %% %'
p105
aS'% %%  %%%%.%        %%%%.%% .% %'
p106
aS'% %   %       %%%.%  .%.. % %% %'
p107
aS'% % % o %.%%%   %%% %%%%%    % %'
p108
aS'% % % %%%%%   %   % %.. % %% % %'
p109
aS'% % % %..%. %%%%    %%% % .% % %'
p110
aS'%1%.%   %%%   %  %%       %% % %'
p111
aS'%3%.%.%     %       %.%.% .%   %'
p112
aS'%%%%%%%%%%%%%%%%%%%%%%%%%%%%%%%%'
p113
asbsS'blueTeamName'
p114
S'HAL9001'
p115
sS'actions'
p116
(lp117
(I1
S'South'
p118
tp119
a(I2
S'North'
p120
tp121
a(I3
g118
tp122
a(I0
g120
tp123
a(I1
g118
tp124
a(I2
g120
tp125
a(I3
g118
tp126
a(I0
g120
tp127
a(I1
g118
tp128
a(I2
g120
tp129
a(I3
g118
tp130
a(I0
g120
tp131
a(I1
g118
tp132
a(I2
g120
tp133
a(I3
g118
tp134
a(I0
g120
tp135
a(I1
g118
tp136
a(I2
g120
tp137
a(I3
g118
tp138
a(I0
g120
tp139
a(I1
g118
tp140
a(I2
g120
tp141
a(I3
g118
tp142
a(I0
g120
tp143
a(I1
g118
tp144
a(I2
g120
tp145
a(I3
g118
tp146
a(I0
g120
tp147
a(I1
g118
tp148
a(I2
g120
tp149
a(I3
g118
tp150
a(I0
g120
tp151
a(I1
g118
tp152
a(I2
g120
tp153
a(I3
g118
tp154
a(I0
g120
tp155
a(I1
g118
tp156
a(I2
g120
tp157
a(I3
g118
tp158
a(I0
g120
tp159
a(I1
g118
tp160
a(I2
g120
tp161
a(I3
g118
tp162
a(I0
g120
tp163
a(I1
g118
tp164
a(I2
g120
tp165
a(I3
g118
tp166
a(I0
g120
tp167
a(I1
S'West'
p168
tp169
a(I2
g120
tp170
a(I3
g118
tp171
a(I0
S'East'
p172
tp173
a(I1
g168
tp174
a(I2
g172
tp175
a(I3
g168
tp176
a(I0
g172
tp177
a(I1
g120
tp178
a(I2
g172
tp179
a(I3
g168
tp180
a(I0
g118
tp181
a(I1
g120
tp182
a(I2
g118
tp183
a(I3
g120
tp184
a(I0
g118
tp185
a(I1
g120
tp186
a(I2
g118
tp187
a(I3
g120
tp188
a(I0
g118
tp189
a(I1
g120
tp190
a(I2
g118
tp191
a(I3
g120
tp192
a(I0
g118
tp193
a(I1
g168
tp194
a(I2
g118
tp195
a(I3
g120
tp196
a(I0
g172
tp197
a(I1
g120
tp198
a(I2
g172
tp199
a(I3
g168
tp200
a(I0
g118
tp201
a(I1
g120
tp202
a(I2
g118
tp203
a(I3
g168
tp204
a(I0
g118
tp205
a(I1
g120
tp206
a(I2
g118
tp207
a(I3
g168
tp208
a(I0
g118
tp209
a(I1
g120
tp210
a(I2
g118
tp211
a(I3
g118
tp212
a(I0
g118
tp213
a(I1
g168
tp214
a(I2
g118
tp215
a(I3
g118
tp216
a(I0
g172
tp217
a(I1
g120
tp218
a(I2
g172
tp219
a(I3
g118
tp220
a(I0
g118
tp221
a(I1
g168
tp222
a(I2
g118
tp223
a(I3
g168
tp224
a(I0
g172
tp225
a(I1
g168
tp226
a(I2
g172
tp227
a(I3
g168
tp228
a(I0
g172
tp229
a(I1
g118
tp230
a(I2
g172
tp231
a(I3
g168
tp232
a(I0
g120
tp233
a(I1
g168
tp234
a(I2
g120
tp235
a(I3
g168
tp236
a(I0
g172
tp237
a(I1
g168
tp238
a(I2
g172
tp239
a(I3
g168
tp240
a(I0
g172
tp241
a(I1
g168
tp242
a(I2
g172
tp243
a(I3
g168
tp244
a(I0
g172
tp245
a(I1
g168
tp246
a(I2
g172
tp247
a(I3
g118
tp248
a(I0
g172
tp249
a(I1
g168
tp250
a(I2
g172
tp251
a(I3
g168
tp252
a(I0
g172
tp253
a(I1
g118
tp254
a(I2
g172
tp255
a(I3
g168
tp256
a(I0
g172
tp257
a(I1
g168
tp258
a(I2
g172
tp259
a(I3
g168
tp260
a(I0
g120
tp261
a(I1
g168
tp262
a(I2
g120
tp263
a(I3
g168
tp264
a(I0
g172
tp265
a(I1
g168
tp266
a(I2
g172
tp267
a(I3
g168
tp268
a(I0
g172
tp269
a(I1
g172
tp270
a(I2
g172
tp271
a(I3
g168
tp272
a(I0
g172
tp273
a(I1
g172
tp274
a(I2
g172
tp275
a(I3
g120
tp276
a(I0
g172
tp277
a(I1
g168
tp278
a(I2
g168
tp279
a(I3
g168
tp280
a(I0
g118
tp281
a(I1
g172
tp282
a(I2
g172
tp283
a(I3
g168
tp284
a(I0
g120
tp285
a(I1
g168
tp286
a(I2
g168
tp287
a(I3
g120
tp288
a(I0
g172
tp289
a(I1
S'Stop'
p290
tp291
a(I2
g168
tp292
a(I3
g168
tp293
a(I0
g172
tp294
a(I1
g290
tp295
a(I2
g172
tp296
a(I3
g172
tp297
a(I0
g118
tp298
a(I1
g172
tp299
a(I2
g172
tp300
a(I3
g120
tp301
a(I0
g172
tp302
a(I1
g168
tp303
a(I2
g168
tp304
a(I3
g172
tp305
a(I0
g172
tp306
a(I1
g290
tp307
a(I2
g172
tp308
a(I3
g172
tp309
a(I0
g168
tp310
a(I1
g168
tp311
a(I2
g172
tp312
a(I3
g120
tp313
a(I0
g168
tp314
a(I1
g118
tp315
a(I2
g120
tp316
a(I3
g120
tp317
a(I0
g118
tp318
a(I1
g120
tp319
a(I2
g172
tp320
a(I3
g120
tp321
a(I0
g118
tp322
a(I1
g172
tp323
a(I2
g172
tp324
a(I3
g120
tp325
a(I0
g118
tp326
a(I1
g172
tp327
a(I2
g120
tp328
a(I3
g172
tp329
a(I0
g118
tp330
a(I1
g172
tp331
a(I2
g172
tp332
a(I3
g120
tp333
a(I0
g172
tp334
a(I1
g120
tp335
a(I2
g172
tp336
a(I3
g118
tp337
a(I0
g172
tp338
a(I1
g172
tp339
a(I2
g118
tp340
a(I3
g172
tp341
a(I0
g118
tp342
a(I1
g172
tp343
a(I2
g120
tp344
a(I3
g118
tp345
a(I0
g120
tp346
a(I1
g168
tp347
a(I2
g120
tp348
a(I3
g168
tp349
a(I0
g172
tp350
a(I1
g168
tp351
a(I2
g120
tp352
a(I3
g168
tp353
a(I0
g172
tp354
a(I1
g168
tp355
a(I2
g120
tp356
a(I3
g168
tp357
a(I0
g118
tp358
a(I1
g118
tp359
a(I2
g120
tp360
a(I3
g118
tp361
a(I0
g120
tp362
a(I1
g168
tp363
a(I2
g120
tp364
a(I3
g168
tp365
a(I0
g120
tp366
a(I1
g168
tp367
a(I2
g120
tp368
a(I3
g168
tp369
a(I0
g120
tp370
a(I1
g168
tp371
a(I2
g120
tp372
a(I3
g120
tp373
a(I0
g168
tp374
a(I1
g168
tp375
a(I2
g120
tp376
a(I3
g118
tp377
a(I0
g168
tp378
a(I1
g168
tp379
a(I2
g120
tp380
a(I3
g168
tp381
a(I0
g172
tp382
a(I1
g168
tp383
a(I2
g120
tp384
a(I3
g118
tp385
a(I0
g172
tp386
a(I1
g120
tp387
a(I2
g120
tp388
a(I3
g120
tp389
a(I0
g118
tp390
a(I1
g168
tp391
a(I2
g120
tp392
a(I3
g168
tp393
a(I0
g118
tp394
a(I1
g168
tp395
a(I2
g120
tp396
a(I3
g168
tp397
a(I0
g172
tp398
a(I1
g172
tp399
a(I2
g172
tp400
a(I3
g118
tp401
a(I0
g172
tp402
a(I1
g172
tp403
a(I2
g172
tp404
a(I3
g168
tp405
a(I0
g120
tp406
a(I1
g120
tp407
a(I2
g118
tp408
a(I3
g168
tp409
a(I0
g172
tp410
a(I1
g120
tp411
a(I2
g118
tp412
a(I3
g118
tp413
a(I0
g168
tp414
a(I1
g120
tp415
a(I2
g118
tp416
a(I3
g118
tp417
a(I0
g118
tp418
a(I1
g120
tp419
a(I2
g118
tp420
a(I3
g118
tp421
a(I0
g118
tp422
a(I1
g168
tp423
a(I2
g172
tp424
a(I3
g118
tp425
a(I0
g172
tp426
a(I1
g168
tp427
a(I2
g172
tp428
a(I3
g120
tp429
a(I0
g168
tp430
a(I1
g120
tp431
a(I2
g172
tp432
a(I3
g172
tp433
a(I0
g120
tp434
a(I1
g118
tp435
a(I2
g120
tp436
a(I3
g172
tp437
a(I0
g120
tp438
a(I1
g168
tp439
a(I2
g120
tp440
a(I3
g120
tp441
a(I0
g120
tp442
a(I1
g168
tp443
a(I2
g120
tp444
a(I3
g172
tp445
a(I0
g120
tp446
a(I1
g120
tp447
a(I2
g172
tp448
a(I3
g168
tp449
a(I0
g120
tp450
a(I1
g118
tp451
a(I2
g168
tp452
a(I3
g118
tp453
a(I0
g168
tp454
a(I1
g118
tp455
a(I2
g172
tp456
a(I3
g168
tp457
a(I0
g168
tp458
a(I1
g118
tp459
a(I2
g172
tp460
a(I3
g168
tp461
a(I0
g172
tp462
a(I1
g172
tp463
a(I2
g172
tp464
a(I3
g120
tp465
a(I0
g120
tp466
a(I1
g172
tp467
a(I2
g172
tp468
a(I3
g120
tp469
a(I0
g118
tp470
a(I1
g168
tp471
a(I2
g172
tp472
a(I3
g120
tp473
a(I0
g172
tp474
a(I1
g168
tp475
a(I2
g172
tp476
a(I3
g120
tp477
a(I0
g118
tp478
a(I1
g120
tp479
a(I2
g120
tp480
a(I3
g168
tp481
a(I0
g172
tp482
a(I1
g120
tp483
a(I2
g172
tp484
a(I3
g168
tp485
a(I0
g172
tp486
a(I1
g168
tp487
a(I2
g172
tp488
a(I3
g118
tp489
a(I0
g120
tp490
a(I1
g168
tp491
a(I2
g172
tp492
a(I3
g118
tp493
a(I0
g120
tp494
a(I1
g118
tp495
a(I2
g172
tp496
a(I3
g118
tp497
a(I0
g172
tp498
a(I1
g168
tp499
a(I2
g172
tp500
a(I3
g118
tp501
a(I0
g168
tp502
a(I1
g172
tp503
a(I2
g172
tp504
a(I3
g118
tp505
a(I0
g120
tp506
a(I1
g120
tp507
a(I2
g118
tp508
a(I3
g120
tp509
a(I0
g120
tp510
a(I1
g120
tp511
a(I2
g172
tp512
a(I3
g120
tp513
a(I0
g172
tp514
a(I1
g168
tp515
a(I2
g172
tp516
a(I3
g120
tp517
a(I0
g120
tp518
a(I1
g172
tp519
a(I2
g118
tp520
a(I3
g120
tp521
a(I0
g120
tp522
a(I1
g118
tp523
a(I2
g172
tp524
a(I3
g120
tp525
a(I0
g120
tp526
a(I1
g118
tp527
a(I2
g168
tp528
a(I3
g172
tp529
a(I0
g120
tp530
a(I1
g118
tp531
a(I2
g120
tp532
a(I3
g120
tp533
a(I0
g120
tp534
a(I1
g118
tp535
a(I2
g120
tp536
a(I3
g120
tp537
a(I0
g118
tp538
a(I1
g118
tp539
a(I2
g172
tp540
a(I3
g168
tp541
a(I0
g118
tp542
a(I1
g172
tp543
asS'length'
p544
I1200
sS'agents'
p545
(lp546
(igame
Agent
p547
(dp548
S'index'
p549
I0
sba(igame
Agent
p550
(dp551
g549
I0
sba(igame
Agent
p552
(dp553
g549
I0
sba(igame
Agent
p554
(dp555
g549
I0
sbasS'redTeamName'
p556
S'Solo47'
p557
s.