(dp1
S'layout'
p2
(ilayout
Layout
p3
(dp4
S'capsules'
p5
(lp6
(I6
I5
tp7
a(I25
I10
tp8
asS'numGhosts'
p9
I4
sS'food'
p10
(igame
Grid
p11
(dp12
S'CELLS_PER_INT'
p13
I30
sS'width'
p14
I32
sS'data'
p15
(lp16
(lp17
I00
aI00
aI00
aI00
aI00
aI00
aI00
aI00
aI00
aI00
aI00
aI00
aI00
aI00
aI00
aI00
aa(lp18
I00
aI00
aI00
aI00
aI00
aI00
aI00
aI00
aI00
aI00
aI00
aI00
aI00
aI00
aI00
aI00
aa(lp19
I00
aI00
aI00
aI00
aI00
aI00
aI00
aI00
aI00
aI00
aI00
aI00
aI00
aI00
aI00
aI00
aa(lp20
I00
aI01
aI01
aI00
aI00
aI00
aI00
aI00
aI01
aI00
aI00
aI00
aI00
aI00
aI00
aI00
aa(lp21
I00
aI00
aI00
aI00
aI00
aI00
aI00
aI00
aI00
aI00
aI00
aI00
aI00
aI00
aI00
aI00
aa(lp22
I00
aI01
aI00
aI00
aI00
aI00
aI00
aI00
aI00
aI00
aI00
aI00
aI01
aI00
aI01
aI00
aa(lp23
I00
aI00
aI00
aI00
aI00
aI00
aI00
aI00
aI00
aI00
aI00
aI00
aI00
aI00
aI00
aI00
aa(lp24
I00
aI00
aI00
aI01
aI00
aI00
aI00
aI00
aI01
aI01
aI00
aI00
aI00
aI00
aI00
aI00
aa(lp25
I00
aI00
aI00
aI01
aI00
aI00
aI00
aI00
aI00
aI01
aI00
aI00
aI00
aI00
aI01
aI00
aa(lp26
I00
aI00
aI00
aI00
aI00
aI01
aI00
aI00
aI00
aI00
aI00
aI01
aI00
aI00
aI00
aI00
aa(lp27
I00
aI00
aI00
aI01
aI00
aI00
aI00
aI01
aI00
aI01
aI00
aI01
aI00
aI00
aI01
aI00
aa(lp28
I00
aI00
aI00
aI00
aI00
aI00
aI00
aI00
aI00
aI00
aI00
aI00
aI00
aI00
aI00
aI00
aa(lp29
I00
aI00
aI00
aI00
aI00
aI00
aI00
aI00
aI00
aI00
aI00
aI00
aI00
aI00
aI00
aI00
aa(lp30
I00
aI00
aI00
aI00
aI00
aI00
aI00
aI00
aI00
aI00
aI00
aI00
aI00
aI00
aI00
aI00
aa(lp31
I00
aI00
aI00
aI00
aI00
aI00
aI00
aI00
aI00
aI01
aI00
aI00
aI00
aI00
aI00
aI00
aa(lp32
I00
aI00
aI00
aI00
aI00
aI00
aI00
aI00
aI00
aI00
aI00
aI00
aI00
aI00
aI00
aI00
aa(lp33
I00
aI00
aI00
aI00
aI00
aI00
aI00
aI00
aI00
aI00
aI00
aI00
aI00
aI00
aI00
aI00
aa(lp34
I00
aI00
aI00
aI00
aI00
aI00
aI01
aI00
aI00
aI00
aI00
aI00
aI00
aI00
aI00
aI00
aa(lp35
I00
aI00
aI00
aI00
aI00
aI00
aI00
aI00
aI00
aI00
aI00
aI00
aI00
aI00
aI00
aI00
aa(lp36
I00
aI00
aI00
aI00
aI00
aI00
aI00
aI00
aI00
aI00
aI00
aI00
aI00
aI00
aI00
aI00
aa(lp37
I00
aI00
aI00
aI00
aI00
aI00
aI00
aI00
aI00
aI00
aI00
aI00
aI00
aI00
aI00
aI00
aa(lp38
I00
aI01
aI00
aI00
aI01
aI00
aI01
aI00
aI01
aI00
aI00
aI00
aI01
aI00
aI00
aI00
aa(lp39
I00
aI00
aI00
aI00
aI01
aI00
aI00
aI00
aI00
aI00
aI01
aI00
aI00
aI00
aI00
aI00
aa(lp40
I00
aI01
aI00
aI00
aI00
aI00
aI01
aI00
aI00
aI00
aI00
aI00
aI01
aI00
aI00
aI00
aa(lp41
I00
aI00
aI00
aI00
aI00
aI00
aI01
aI01
aI00
aI00
aI00
aI00
aI01
aI00
aI00
aI00
aa(lp42
I00
aI00
aI00
aI00
aI00
aI00
aI00
aI00
aI00
aI00
aI00
aI00
aI00
aI00
aI00
aI00
aa(lp43
I00
aI01
aI00
aI01
aI00
aI00
aI00
aI00
aI00
aI00
aI00
aI00
aI00
aI00
aI01
aI00
aa(lp44
I00
aI00
aI00
aI00
aI00
aI00
aI00
aI00
aI00
aI00
aI00
aI00
aI00
aI00
aI00
aI00
aa(lp45
I00
aI00
aI00
aI00
aI00
aI00
aI00
aI01
aI00
aI00
aI00
aI00
aI00
aI01
aI01
aI00
aa(lp46
I00
aI00
aI00
aI00
aI00
aI00
aI00
aI00
aI00
aI00
aI00
aI00
aI00
aI00
aI00
aI00
aa(lp47
I00
aI00
aI00
aI00
aI00
aI00
aI00
aI00
aI00
aI00
aI00
aI00
aI00
aI00
aI00
aI00
aa(lp48
I00
aI00
aI00
aI00
aI00
aI00
aI00
aI00
aI00
aI00
aI00
aI00
aI00
aI00
aI00
aI00
aasS'height'
p49
I16
sbsS'agentPositions'
p50
(lp51
(I00
(I1
I2
tp52
tp53
a(I00
(I30
I13
tp54
tp55
a(I00
(I1
I1
tp56
tp57
a(I00
(I30
I14
tp58
tp59
asg49
I16
sg14
I32
sS'walls'
p60
(igame
Grid
p61
(dp62
g13
I30
sg14
I32
sg15
(lp63
(lp64
I01
aI01
aI01
aI01
aI01
aI01
aI01
aI01
aI01
aI01
aI01
aI01
aI01
aI01
aI01
aI01
aa(lp65
I01
aI00
aI00
aI00
aI00
aI00
aI00
aI00
aI00
aI00
aI00
aI00
aI00
aI00
aI00
aI01
aa(lp66
I01
aI01
aI01
aI01
aI01
aI01
aI01
aI01
aI01
aI01
aI01
aI01
aI01
aI01
aI00
aI01
aa(lp67
I01
aI00
aI00
aI00
aI00
aI00
aI00
aI01
aI00
aI01
aI00
aI00
aI00
aI00
aI00
aI01
aa(lp68
I01
aI01
aI01
aI01
aI01
aI01
aI00
aI00
aI00
aI00
aI00
aI01
aI01
aI01
aI01
aI01
aa(lp69
I01
aI00
aI00
aI00
aI00
aI00
aI00
aI00
aI01
aI01
aI00
aI01
aI00
aI01
aI00
aI01
aa(lp70
I01
aI01
aI00
aI01
aI01
aI00
aI01
aI01
aI01
aI00
aI00
aI00
aI00
aI00
aI00
aI01
aa(lp71
I01
aI00
aI00
aI00
aI01
aI00
aI00
aI01
aI00
aI00
aI01
aI01
aI01
aI00
aI01
aI01
aa(lp72
I01
aI00
aI01
aI00
aI01
aI01
aI00
aI01
aI01
aI00
aI01
aI00
aI00
aI00
aI00
aI01
aa(lp73
I01
aI00
aI01
aI01
aI01
aI00
aI00
aI01
aI01
aI01
aI01
aI00
aI01
aI00
aI01
aI01
aa(lp74
I01
aI00
aI01
aI00
aI01
aI01
aI00
aI00
aI01
aI00
aI01
aI00
aI01
aI00
aI00
aI01
aa(lp75
I01
aI00
aI00
aI00
aI00
aI01
aI00
aI01
aI01
aI00
aI01
aI01
aI01
aI00
aI01
aI01
aa(lp76
I01
aI01
aI00
aI01
aI00
aI01
aI00
aI00
aI00
aI00
aI00
aI00
aI00
aI00
aI00
aI01
aa(lp77
I01
aI00
aI00
aI01
aI00
aI00
aI00
aI00
aI00
aI01
aI01
aI01
aI00
aI01
aI00
aI01
aa(lp78
I01
aI00
aI01
aI01
aI01
aI00
aI01
aI00
aI00
aI00
aI01
aI00
aI00
aI01
aI00
aI01
aa(lp79
I01
aI00
aI00
aI01
aI00
aI00
aI01
aI00
aI00
aI01
aI01
aI00
aI00
aI00
aI00
aI01
aa(lp80
I01
aI00
aI00
aI00
aI00
aI01
aI01
aI00
aI00
aI01
aI00
aI00
aI01
aI00
aI00
aI01
aa(lp81
I01
aI00
aI01
aI00
aI00
aI01
aI00
aI00
aI00
aI01
aI00
aI01
aI01
aI01
aI00
aI01
aa(lp82
I01
aI00
aI01
aI00
aI01
aI01
aI01
aI00
aI00
aI00
aI00
aI00
aI01
aI00
aI00
aI01
aa(lp83
I01
aI00
aI00
aI00
aI00
aI00
aI00
aI00
aI00
aI00
aI01
aI00
aI01
aI00
aI01
aI01
aa(lp84
I01
aI01
aI00
aI01
aI01
aI01
aI00
aI01
aI01
aI00
aI01
aI00
aI00
aI00
aI00
aI01
aa(lp85
I01
aI00
aI00
aI01
aI00
aI01
aI00
aI01
aI00
aI00
aI01
aI01
aI00
aI01
aI00
aI01
aa(lp86
I01
aI01
aI00
aI01
aI00
aI01
aI01
aI01
aI01
aI00
aI00
aI01
aI01
aI01
aI00
aI01
aa(lp87
I01
aI00
aI00
aI00
aI00
aI01
aI00
aI01
aI01
aI00
aI01
aI01
aI00
aI01
aI00
aI01
aa(lp88
I01
aI01
aI00
aI01
aI01
aI01
aI00
aI00
aI01
aI00
aI00
aI01
aI00
aI00
aI00
aI01
aa(lp89
I01
aI00
aI00
aI00
aI00
aI00
aI00
aI01
aI01
aI01
aI00
aI01
aI01
aI00
aI01
aI01
aa(lp90
I01
aI00
aI01
aI00
aI01
aI00
aI01
aI01
aI00
aI00
aI00
aI00
aI00
aI00
aI00
aI01
aa(lp91
I01
aI01
aI01
aI01
aI01
aI00
aI00
aI00
aI00
aI00
aI01
aI01
aI01
aI01
aI01
aI01
aa(lp92
I01
aI00
aI00
aI00
aI00
aI00
aI01
aI00
aI01
aI00
aI00
aI00
aI00
aI00
aI00
aI01
aa(lp93
I01
aI00
aI01
aI01
aI01
aI01
aI01
aI01
aI01
aI01
aI01
aI01
aI01
aI01
aI01
aI01
aa(lp94
I01
aI00
aI00
aI00
aI00
aI00
aI00
aI00
aI00
aI00
aI00
aI00
aI00
aI00
aI00
aI01
aa(lp95
I01
aI01
aI01
aI01
aI01
aI01
aI01
aI01
aI01
aI01
aI01
aI01
aI01
aI01
aI01
aI01
aasg49
I16
sbsS'layoutText'
p96
(lp97
S'%%%%%%%%%%%%%%%%%%%%%%%%%%%%%%%%'
p98
aS'%   %. %.%.%       %     %.%.%4%'
p99
aS'% % %%       %%  %   %%%   %.%2%'
p100
aS'% % %. % %%%    %%%% .%..% % % %'
p101
aS'% % %% % ..% %   %   %%%%% % % %'
p102
aS'% %    %%%%% %%%   %%%.% o % % %'
p103
aS'% %% % ..%.  %.%%%       %   % %'
p104
aS'% %. %%.%%%%        %.%%%%  %% %'
p105
aS'% %%  %%%%.%        %%%%.%% .% %'
p106
aS'% %   %       %%%.%  .%.. % %% %'
p107
aS'% % % o %.%%%   %%% %%%%%    % %'
p108
aS'% % % %%%%%   %   % %.. % %% % %'
p109
aS'% % % %..%. %%%%    %%% % .% % %'
p110
aS'%1%.%   %%%   %  %%       %% % %'
p111
aS'%3%.%.%     %       %.%.% .%   %'
p112
aS'%%%%%%%%%%%%%%%%%%%%%%%%%%%%%%%%'
p113
asbsS'blueTeamName'
p114
S'TopTen'
p115
sS'actions'
p116
(lp117
(I0
S'North'
p118
tp119
a(I1
S'South'
p120
tp121
a(I2
g118
tp122
a(I3
g120
tp123
a(I0
g118
tp124
a(I1
g120
tp125
a(I2
g118
tp126
a(I3
g120
tp127
a(I0
g118
tp128
a(I1
g120
tp129
a(I2
g118
tp130
a(I3
g120
tp131
a(I0
g118
tp132
a(I1
g120
tp133
a(I2
g118
tp134
a(I3
g120
tp135
a(I0
g118
tp136
a(I1
g120
tp137
a(I2
g118
tp138
a(I3
g120
tp139
a(I0
g118
tp140
a(I1
g120
tp141
a(I2
g118
tp142
a(I3
g120
tp143
a(I0
g118
tp144
a(I1
g120
tp145
a(I2
g118
tp146
a(I3
g120
tp147
a(I0
g118
tp148
a(I1
g120
tp149
a(I2
g118
tp150
a(I3
g120
tp151
a(I0
g118
tp152
a(I1
g120
tp153
a(I2
g118
tp154
a(I3
g120
tp155
a(I0
g118
tp156
a(I1
g120
tp157
a(I2
g118
tp158
a(I3
g120
tp159
a(I0
g118
tp160
a(I1
g120
tp161
a(I2
g118
tp162
a(I3
g120
tp163
a(I0
g118
tp164
a(I1
g120
tp165
a(I2
g118
tp166
a(I3
g120
tp167
a(I0
S'East'
p168
tp169
a(I1
S'West'
p170
tp171
a(I2
g118
tp172
a(I3
g120
tp173
a(I0
g168
tp174
a(I1
g170
tp175
a(I2
g168
tp176
a(I3
g170
tp177
a(I0
g120
tp178
a(I1
g118
tp179
a(I2
g168
tp180
a(I3
g170
tp181
a(I0
g120
tp182
a(I1
g118
tp183
a(I2
g120
tp184
a(I3
g118
tp185
a(I0
g120
tp186
a(I1
g118
tp187
a(I2
g120
tp188
a(I3
g118
tp189
a(I0
g120
tp190
a(I1
g118
tp191
a(I2
g120
tp192
a(I3
g118
tp193
a(I0
g168
tp194
a(I1
g170
tp195
a(I2
g120
tp196
a(I3
g118
tp197
a(I0
g168
tp198
a(I1
g118
tp199
a(I2
g168
tp200
a(I3
g170
tp201
a(I0
g168
tp202
a(I1
g118
tp203
a(I2
g120
tp204
a(I3
g118
tp205
a(I0
g118
tp206
a(I1
g118
tp207
a(I2
g120
tp208
a(I3
g118
tp209
a(I0
g118
tp210
a(I1
g118
tp211
a(I2
g120
tp212
a(I3
g118
tp213
a(I0
g118
tp214
a(I1
g170
tp215
a(I2
g120
tp216
a(I3
g170
tp217
a(I0
g168
tp218
a(I1
g118
tp219
a(I2
g168
tp220
a(I3
g118
tp221
a(I0
g168
tp222
a(I1
g170
tp223
a(I2
g120
tp224
a(I3
g118
tp225
a(I0
g168
tp226
a(I1
g170
tp227
a(I2
g168
tp228
a(I3
g170
tp229
a(I0
g168
tp230
a(I1
g120
tp231
a(I2
g168
tp232
a(I3
g170
tp233
a(I0
g168
tp234
a(I1
g170
tp235
a(I2
g118
tp236
a(I3
g120
tp237
a(I0
g168
tp238
a(I1
g170
tp239
a(I2
g168
tp240
a(I3
g170
tp241
a(I0
g118
tp242
a(I1
g170
tp243
a(I2
g168
tp244
a(I3
g170
tp245
a(I0
g168
tp246
a(I1
g170
tp247
a(I2
g168
tp248
a(I3
g170
tp249
a(I0
g168
tp250
a(I1
g170
tp251
a(I2
g168
tp252
a(I3
g170
tp253
a(I0
g168
tp254
a(I1
g170
tp255
a(I2
g168
tp256
a(I3
g170
tp257
a(I0
g168
tp258
a(I1
g120
tp259
a(I2
g168
tp260
a(I3
g120
tp261
a(I0
g168
tp262
a(I1
g170
tp263
a(I2
g118
tp264
a(I3
g170
tp265
a(I0
g168
tp266
a(I1
g170
tp267
a(I2
g168
tp268
a(I3
g170
tp269
a(I0
g120
tp270
a(I1
g170
tp271
a(I2
g168
tp272
a(I3
g170
tp273
a(I0
g168
tp274
a(I1
g170
tp275
a(I2
g118
tp276
a(I3
g120
tp277
a(I0
g168
tp278
a(I1
g118
tp279
a(I2
g170
tp280
a(I3
g170
tp281
a(I0
g120
tp282
a(I1
S'Stop'
p283
tp284
a(I2
g168
tp285
a(I3
g170
tp286
a(I0
g168
tp287
a(I1
g120
tp288
a(I2
g120
tp289
a(I3
g170
tp290
a(I0
g170
tp291
a(I1
g170
tp292
a(I2
g170
tp293
a(I3
g170
tp294
a(I0
g118
tp295
a(I1
g170
tp296
a(I2
g170
tp297
a(I3
g120
tp298
a(I0
g118
tp299
a(I1
g118
tp300
a(I2
g170
tp301
a(I3
g170
tp302
a(I0
g168
tp303
a(I1
g170
tp304
a(I2
g120
tp305
a(I3
g170
tp306
a(I0
g168
tp307
a(I1
g170
tp308
a(I2
g170
tp309
a(I3
g118
tp310
a(I0
g168
tp311
a(I1
g168
tp312
a(I2
g170
tp313
a(I3
g283
tp314
a(I0
g168
tp315
a(I1
g168
tp316
a(I2
g283
tp317
a(I3
g283
tp318
a(I0
g120
tp319
a(I1
g118
tp320
a(I2
g283
tp321
a(I3
g283
tp322
a(I0
g120
tp323
a(I1
g118
tp324
a(I2
g283
tp325
a(I3
g283
tp326
a(I0
g170
tp327
a(I1
g118
tp328
a(I2
g283
tp329
a(I3
g283
tp330
a(I0
g168
tp331
a(I1
g118
tp332
a(I2
g283
tp333
a(I3
g283
tp334
a(I0
g118
tp335
a(I1
g170
tp336
a(I2
g283
tp337
a(I3
g283
tp338
a(I0
g168
tp339
a(I1
g170
tp340
a(I2
g283
tp341
a(I3
g283
tp342
a(I0
g168
tp343
a(I1
g118
tp344
a(I2
g283
tp345
a(I3
g283
tp346
a(I0
g118
tp347
a(I1
g120
tp348
a(I2
g283
tp349
a(I3
g283
tp350
a(I0
g120
tp351
a(I1
g170
tp352
a(I2
g283
tp353
a(I3
g283
tp354
a(I0
g120
tp355
a(I1
g170
tp356
a(I2
g283
tp357
a(I3
g283
tp358
a(I0
g120
tp359
a(I1
g118
tp360
a(I2
g283
tp361
a(I3
g283
tp362
a(I0
g120
tp363
a(I1
g120
tp364
a(I2
g283
tp365
a(I3
g283
tp366
a(I0
g170
tp367
a(I1
g120
tp368
a(I2
g283
tp369
a(I3
g283
tp370
a(I0
g170
tp371
a(I1
g120
tp372
a(I2
g283
tp373
a(I3
g283
tp374
a(I0
g120
tp375
a(I1
g168
tp376
a(I2
g283
tp377
a(I3
g283
tp378
a(I0
g170
tp379
a(I1
g168
tp380
a(I2
g283
tp381
a(I3
g283
tp382
a(I0
g170
tp383
a(I1
g170
tp384
a(I2
g283
tp385
a(I3
g283
tp386
a(I0
g118
tp387
a(I1
g170
tp388
a(I2
g283
tp389
a(I3
g283
tp390
a(I0
g120
tp391
a(I1
g118
tp392
a(I2
g283
tp393
a(I3
g283
tp394
a(I0
g170
tp395
a(I1
g118
tp396
a(I2
g283
tp397
a(I3
g283
tp398
a(I0
g120
tp399
a(I1
g170
tp400
a(I2
g283
tp401
a(I3
g283
tp402
a(I0
g118
tp403
a(I1
g170
tp404
a(I2
g283
tp405
a(I3
g283
tp406
a(I0
g168
tp407
a(I1
g120
tp408
a(I2
g283
tp409
a(I3
g283
tp410
a(I0
g168
tp411
a(I1
g170
tp412
a(I2
g283
tp413
a(I3
g283
tp414
a(I0
g168
tp415
a(I1
g168
tp416
a(I2
g283
tp417
a(I3
g283
tp418
a(I0
g118
tp419
a(I1
g283
tp420
a(I2
g283
tp421
a(I3
g283
tp422
a(I0
g168
tp423
a(I1
g283
tp424
a(I2
g283
tp425
a(I3
g283
tp426
a(I0
g168
tp427
a(I1
g118
tp428
a(I2
g283
tp429
a(I3
g283
tp430
a(I0
g120
tp431
a(I1
g118
tp432
a(I2
g283
tp433
a(I3
g283
tp434
a(I0
g168
tp435
a(I1
g170
tp436
a(I2
g283
tp437
a(I3
g283
tp438
a(I0
g168
tp439
a(I1
g168
tp440
a(I2
g283
tp441
a(I3
g283
tp442
a(I0
g118
tp443
a(I1
g120
tp444
a(I2
g283
tp445
a(I3
g283
tp446
a(I0
g118
tp447
a(I1
g120
tp448
a(I2
g283
tp449
a(I3
g283
tp450
a(I0
g118
tp451
a(I1
g120
tp452
a(I2
g283
tp453
a(I3
g283
tp454
a(I0
g118
tp455
a(I1
g120
tp456
a(I2
g283
tp457
a(I3
g283
tp458
a(I0
g118
tp459
a(I1
g120
tp460
a(I2
g283
tp461
a(I3
g283
tp462
a(I0
g120
tp463
a(I1
g168
tp464
a(I2
g283
tp465
a(I3
g283
tp466
a(I0
g120
tp467
a(I1
g120
tp468
a(I2
g283
tp469
a(I3
g283
tp470
a(I0
g120
tp471
a(I1
g118
tp472
a(I2
g283
tp473
a(I3
g283
tp474
a(I0
g120
tp475
a(I1
g168
tp476
a(I2
g118
tp477
a(I3
g120
tp478
a(I0
g120
tp479
a(I1
g170
tp480
a(I2
g120
tp481
a(I3
g120
tp482
a(I0
g170
tp483
a(I1
g170
tp484
a(I2
g168
tp485
a(I3
g120
tp486
a(I0
g120
tp487
a(I1
g118
tp488
a(I2
g168
tp489
a(I3
g120
tp490
a(I0
g120
tp491
a(I1
g170
tp492
a(I2
g118
tp493
a(I3
g120
tp494
a(I0
g168
tp495
a(I1
g170
tp496
a(I2
g168
tp497
a(I3
g120
tp498
a(I0
g170
tp499
a(I1
g120
tp500
a(I2
g168
tp501
a(I3
g120
tp502
a(I0
g120
tp503
a(I1
g120
tp504
a(I2
g168
tp505
a(I3
g120
tp506
a(I0
g120
tp507
a(I1
g170
tp508
a(I2
g168
tp509
a(I3
g120
tp510
a(I0
g170
tp511
a(I1
g168
tp512
a(I2
g168
tp513
a(I3
g120
tp514
a(I0
g170
tp515
a(I1
g120
tp516
a(I2
g120
tp517
a(I3
g120
tp518
a(I0
g118
tp519
a(I1
g120
tp520
a(I2
g118
tp521
a(I3
g120
tp522
a(I0
g170
tp523
a(I1
g170
tp524
a(I2
g168
tp525
a(I3
g120
tp526
a(I0
g118
tp527
a(I1
g120
tp528
a(I2
g168
tp529
a(I3
g170
tp530
a(I0
g120
tp531
a(I1
g120
tp532
a(I2
g120
tp533
a(I3
g170
tp534
a(I0
g170
tp535
a(I1
g120
tp536
a(I2
g168
tp537
a(I3
g118
tp538
a(I0
g168
tp539
a(I1
g120
tp540
a(I2
g168
tp541
a(I3
g118
tp542
a(I0
g168
tp543
a(I1
g120
tp544
a(I2
g170
tp545
a(I3
g118
tp546
a(I0
g170
tp547
a(I1
g118
tp548
a(I2
g170
tp549
a(I3
g118
tp550
a(I0
g118
tp551
a(I1
g118
tp552
a(I2
g120
tp553
a(I3
g170
tp554
a(I0
g283
tp555
a(I1
g118
tp556
a(I2
g120
tp557
a(I3
g170
tp558
a(I0
g283
tp559
a(I1
g118
tp560
a(I2
g120
tp561
a(I3
g170
tp562
a(I0
g283
tp563
a(I1
g118
tp564
a(I2
g120
tp565
a(I3
g120
tp566
a(I0
g283
tp567
a(I1
g168
tp568
a(I2
g168
tp569
a(I3
g120
tp570
a(I0
g283
tp571
a(I1
g168
tp572
a(I2
g283
tp573
a(I3
g120
tp574
a(I0
g283
tp575
a(I1
g120
tp576
a(I2
g170
tp577
a(I3
g170
tp578
a(I0
g120
tp579
a(I1
g120
tp580
a(I2
g118
tp581
a(I3
g170
tp582
a(I0
g168
tp583
a(I1
g120
tp584
a(I2
g118
tp585
a(I3
g170
tp586
a(I0
g120
tp587
a(I1
g283
tp588
a(I2
g118
tp589
a(I3
g170
tp590
a(I0
g120
tp591
a(I1
g120
tp592
a(I2
g118
tp593
a(I3
g170
tp594
a(I0
g120
tp595
a(I1
g120
tp596
a(I2
g118
tp597
a(I3
g170
tp598
a(I0
g168
tp599
a(I1
g118
tp600
a(I2
g170
tp601
a(I3
g120
tp602
a(I0
g170
tp603
a(I1
g168
tp604
a(I2
g168
tp605
a(I3
g170
tp606
a(I0
g120
tp607
a(I1
g168
tp608
a(I2
g120
tp609
a(I3
g170
tp610
a(I0
g120
tp611
a(I1
g118
tp612
a(I2
g120
tp613
a(I3
g170
tp614
a(I0
g168
tp615
a(I1
g168
tp616
asS'length'
p617
I1200
sS'agents'
p618
(lp619
(igame
Agent
p620
(dp621
S'index'
p622
I0
sba(igame
Agent
p623
(dp624
g622
I0
sba(igame
Agent
p625
(dp626
g622
I0
sba(igame
Agent
p627
(dp628
g622
I0
sbasS'redTeamName'
p629
S'2Pac'
p630
s.