(dp1
S'layout'
p2
(ilayout
Layout
p3
(dp4
S'capsules'
p5
(lp6
(I12
I2
tp7
a(I7
I5
tp8
a(I26
I12
tp9
a(I21
I15
tp10
asS'numGhosts'
p11
I4
sS'food'
p12
(igame
Grid
p13
(dp14
S'CELLS_PER_INT'
p15
I30
sS'width'
p16
I34
sS'data'
p17
(lp18
(lp19
I00
aI00
aI00
aI00
aI00
aI00
aI00
aI00
aI00
aI00
aI00
aI00
aI00
aI00
aI00
aI00
aI00
aI00
aa(lp20
I00
aI00
aI00
aI00
aI00
aI00
aI00
aI00
aI00
aI00
aI00
aI00
aI00
aI00
aI00
aI00
aI00
aI00
aa(lp21
I00
aI00
aI00
aI00
aI00
aI00
aI00
aI00
aI00
aI00
aI00
aI00
aI00
aI00
aI00
aI00
aI00
aI00
aa(lp22
I00
aI00
aI00
aI00
aI00
aI00
aI00
aI00
aI00
aI00
aI00
aI00
aI00
aI00
aI00
aI00
aI00
aI00
aa(lp23
I00
aI00
aI00
aI00
aI00
aI00
aI00
aI00
aI01
aI00
aI00
aI00
aI01
aI00
aI00
aI00
aI01
aI00
aa(lp24
I00
aI00
aI00
aI00
aI00
aI00
aI00
aI00
aI00
aI00
aI00
aI00
aI00
aI00
aI00
aI00
aI00
aI00
aa(lp25
I00
aI00
aI00
aI00
aI00
aI00
aI00
aI01
aI00
aI01
aI00
aI00
aI00
aI01
aI00
aI01
aI01
aI00
aa(lp26
I00
aI00
aI00
aI00
aI00
aI00
aI00
aI01
aI00
aI00
aI00
aI00
aI00
aI00
aI00
aI00
aI00
aI00
aa(lp27
I00
aI00
aI01
aI00
aI01
aI01
aI00
aI00
aI00
aI01
aI00
aI00
aI00
aI00
aI00
aI01
aI01
aI00
aa(lp28
I00
aI00
aI00
aI00
aI00
aI00
aI01
aI01
aI01
aI00
aI00
aI00
aI00
aI00
aI00
aI00
aI00
aI00
aa(lp29
I00
aI00
aI00
aI00
aI01
aI00
aI00
aI01
aI00
aI00
aI00
aI00
aI00
aI01
aI00
aI00
aI00
aI00
aa(lp30
I00
aI00
aI00
aI00
aI00
aI00
aI00
aI01
aI00
aI01
aI01
aI00
aI00
aI00
aI00
aI00
aI00
aI00
aa(lp31
I00
aI00
aI00
aI00
aI00
aI00
aI00
aI00
aI00
aI00
aI00
aI00
aI00
aI00
aI00
aI00
aI00
aI00
aa(lp32
I00
aI00
aI00
aI00
aI00
aI01
aI00
aI00
aI00
aI00
aI00
aI00
aI00
aI00
aI00
aI00
aI01
aI00
aa(lp33
I00
aI00
aI01
aI00
aI00
aI00
aI00
aI00
aI00
aI01
aI01
aI00
aI00
aI00
aI00
aI00
aI01
aI00
aa(lp34
I00
aI00
aI00
aI00
aI00
aI00
aI00
aI00
aI00
aI00
aI00
aI00
aI00
aI00
aI00
aI00
aI00
aI00
aa(lp35
I00
aI00
aI00
aI00
aI00
aI00
aI00
aI00
aI00
aI00
aI00
aI00
aI00
aI00
aI00
aI00
aI00
aI00
aa(lp36
I00
aI00
aI00
aI00
aI00
aI00
aI00
aI00
aI00
aI00
aI00
aI00
aI00
aI00
aI00
aI00
aI00
aI00
aa(lp37
I00
aI00
aI00
aI00
aI00
aI00
aI00
aI00
aI00
aI00
aI00
aI00
aI00
aI00
aI00
aI00
aI00
aI00
aa(lp38
I00
aI01
aI00
aI00
aI00
aI00
aI00
aI01
aI01
aI00
aI00
aI00
aI00
aI00
aI00
aI01
aI00
aI00
aa(lp39
I00
aI01
aI00
aI00
aI00
aI00
aI00
aI00
aI00
aI00
aI00
aI00
aI01
aI00
aI00
aI00
aI00
aI00
aa(lp40
I00
aI00
aI00
aI00
aI00
aI00
aI00
aI00
aI00
aI00
aI00
aI00
aI00
aI00
aI00
aI00
aI00
aI00
aa(lp41
I00
aI00
aI00
aI00
aI00
aI00
aI00
aI01
aI01
aI00
aI01
aI00
aI00
aI00
aI00
aI00
aI00
aI00
aa(lp42
I00
aI00
aI00
aI00
aI01
aI00
aI00
aI00
aI00
aI00
aI01
aI00
aI00
aI01
aI00
aI00
aI00
aI00
aa(lp43
I00
aI00
aI00
aI00
aI00
aI00
aI00
aI00
aI00
aI01
aI01
aI01
aI00
aI00
aI00
aI00
aI00
aI00
aa(lp44
I00
aI01
aI01
aI00
aI00
aI00
aI00
aI00
aI01
aI00
aI00
aI00
aI01
aI01
aI00
aI01
aI00
aI00
aa(lp45
I00
aI00
aI00
aI00
aI00
aI00
aI00
aI00
aI00
aI00
aI01
aI00
aI00
aI00
aI00
aI00
aI00
aI00
aa(lp46
I00
aI01
aI01
aI00
aI01
aI00
aI00
aI00
aI01
aI00
aI01
aI00
aI00
aI00
aI00
aI00
aI00
aI00
aa(lp47
I00
aI00
aI00
aI00
aI00
aI00
aI00
aI00
aI00
aI00
aI00
aI00
aI00
aI00
aI00
aI00
aI00
aI00
aa(lp48
I00
aI01
aI00
aI00
aI00
aI01
aI00
aI00
aI00
aI01
aI00
aI00
aI00
aI00
aI00
aI00
aI00
aI00
aa(lp49
I00
aI00
aI00
aI00
aI00
aI00
aI00
aI00
aI00
aI00
aI00
aI00
aI00
aI00
aI00
aI00
aI00
aI00
aa(lp50
I00
aI00
aI00
aI00
aI00
aI00
aI00
aI00
aI00
aI00
aI00
aI00
aI00
aI00
aI00
aI00
aI00
aI00
aa(lp51
I00
aI00
aI00
aI00
aI00
aI00
aI00
aI00
aI00
aI00
aI00
aI00
aI00
aI00
aI00
aI00
aI00
aI00
aa(lp52
I00
aI00
aI00
aI00
aI00
aI00
aI00
aI00
aI00
aI00
aI00
aI00
aI00
aI00
aI00
aI00
aI00
aI00
aasS'height'
p53
I18
sbsS'agentPositions'
p54
(lp55
(I00
(I1
I2
tp56
tp57
a(I00
(I32
I15
tp58
tp59
a(I00
(I1
I1
tp60
tp61
a(I00
(I32
I16
tp62
tp63
asg53
I18
sg16
I34
sS'walls'
p64
(igame
Grid
p65
(dp66
g15
I30
sg16
I34
sg17
(lp67
(lp68
I01
aI01
aI01
aI01
aI01
aI01
aI01
aI01
aI01
aI01
aI01
aI01
aI01
aI01
aI01
aI01
aI01
aI01
aa(lp69
I01
aI00
aI00
aI00
aI00
aI00
aI00
aI00
aI00
aI00
aI00
aI00
aI00
aI00
aI00
aI00
aI00
aI01
aa(lp70
I01
aI01
aI01
aI01
aI01
aI01
aI01
aI01
aI01
aI01
aI01
aI01
aI01
aI01
aI01
aI01
aI00
aI01
aa(lp71
I01
aI00
aI00
aI01
aI00
aI00
aI01
aI00
aI00
aI01
aI00
aI00
aI00
aI01
aI00
aI00
aI00
aI01
aa(lp72
I01
aI00
aI01
aI01
aI01
aI00
aI01
aI00
aI00
aI00
aI00
aI01
aI00
aI00
aI00
aI01
aI00
aI01
aa(lp73
I01
aI00
aI00
aI01
aI00
aI00
aI01
aI01
aI01
aI01
aI00
aI01
aI01
aI01
aI01
aI01
aI01
aI01
aa(lp74
I01
aI00
aI00
aI01
aI01
aI00
aI01
aI00
aI01
aI00
aI00
aI00
aI00
aI00
aI00
aI00
aI00
aI01
aa(lp75
I01
aI01
aI00
aI01
aI00
aI00
aI01
aI00
aI01
aI01
aI00
aI01
aI01
aI01
aI01
aI01
aI01
aI01
aa(lp76
I01
aI00
aI00
aI01
aI00
aI00
aI01
aI00
aI01
aI00
aI00
aI01
aI00
aI00
aI00
aI00
aI00
aI01
aa(lp77
I01
aI00
aI01
aI01
aI00
aI00
aI00
aI00
aI00
aI00
aI00
aI00
aI00
aI01
aI00
aI01
aI01
aI01
aa(lp78
I01
aI00
aI00
aI00
aI00
aI00
aI01
aI00
aI01
aI01
aI00
aI01
aI00
aI00
aI00
aI00
aI00
aI01
aa(lp79
I01
aI01
aI00
aI01
aI00
aI00
aI01
aI00
aI01
aI00
aI00
aI01
aI00
aI00
aI00
aI00
aI00
aI01
aa(lp80
I01
aI00
aI00
aI00
aI00
aI01
aI01
aI01
aI01
aI01
aI00
aI01
aI01
aI01
aI01
aI01
aI01
aI01
aa(lp81
I01
aI00
aI01
aI01
aI00
aI00
aI00
aI00
aI00
aI00
aI00
aI00
aI00
aI00
aI00
aI00
aI00
aI01
aa(lp82
I01
aI00
aI00
aI01
aI00
aI00
aI00
aI00
aI00
aI00
aI00
aI00
aI00
aI00
aI00
aI01
aI00
aI01
aa(lp83
I01
aI00
aI01
aI01
aI01
aI01
aI01
aI01
aI01
aI00
aI01
aI00
aI01
aI01
aI01
aI01
aI01
aI01
aa(lp84
I01
aI00
aI00
aI00
aI00
aI00
aI00
aI00
aI00
aI00
aI00
aI00
aI00
aI00
aI00
aI00
aI00
aI01
aa(lp85
I01
aI00
aI00
aI00
aI00
aI00
aI00
aI00
aI00
aI00
aI00
aI00
aI00
aI00
aI00
aI00
aI00
aI01
aa(lp86
I01
aI01
aI01
aI01
aI01
aI01
aI00
aI01
aI00
aI01
aI01
aI01
aI01
aI01
aI01
aI01
aI00
aI01
aa(lp87
I01
aI00
aI01
aI00
aI00
aI00
aI00
aI00
aI00
aI00
aI00
aI00
aI00
aI00
aI01
aI00
aI00
aI01
aa(lp88
I01
aI00
aI00
aI00
aI00
aI00
aI00
aI00
aI00
aI00
aI00
aI00
aI00
aI00
aI01
aI01
aI00
aI01
aa(lp89
I01
aI01
aI01
aI01
aI01
aI01
aI01
aI00
aI01
aI01
aI01
aI01
aI01
aI00
aI00
aI00
aI00
aI01
aa(lp90
I01
aI00
aI00
aI00
aI00
aI00
aI01
aI00
aI00
aI01
aI00
aI01
aI00
aI00
aI01
aI00
aI01
aI01
aa(lp91
I01
aI00
aI00
aI00
aI00
aI00
aI01
aI00
aI01
aI01
aI00
aI01
aI00
aI00
aI00
aI00
aI00
aI01
aa(lp92
I01
aI01
aI01
aI00
aI01
aI00
aI00
aI00
aI00
aI00
aI00
aI00
aI00
aI00
aI01
aI01
aI00
aI01
aa(lp93
I01
aI00
aI00
aI00
aI00
aI00
aI01
aI00
aI00
aI01
aI00
aI01
aI00
aI00
aI01
aI00
aI00
aI01
aa(lp94
I01
aI01
aI01
aI01
aI01
aI01
aI01
aI00
aI01
aI01
aI00
aI01
aI00
aI00
aI01
aI00
aI01
aI01
aa(lp95
I01
aI00
aI00
aI00
aI00
aI00
aI00
aI00
aI00
aI01
aI00
aI01
aI00
aI01
aI01
aI00
aI00
aI01
aa(lp96
I01
aI01
aI01
aI01
aI01
aI01
aI01
aI00
aI01
aI01
aI01
aI01
aI00
aI00
aI01
aI00
aI00
aI01
aa(lp97
I01
aI00
aI01
aI00
aI00
aI00
aI01
aI00
aI00
aI00
aI00
aI01
aI00
aI01
aI01
aI01
aI00
aI01
aa(lp98
I01
aI00
aI00
aI00
aI01
aI00
aI00
aI00
aI01
aI00
aI00
aI01
aI00
aI00
aI01
aI00
aI00
aI01
aa(lp99
I01
aI00
aI01
aI01
aI01
aI01
aI01
aI01
aI01
aI01
aI01
aI01
aI01
aI01
aI01
aI01
aI01
aI01
aa(lp100
I01
aI00
aI00
aI00
aI00
aI00
aI00
aI00
aI00
aI00
aI00
aI00
aI00
aI00
aI00
aI00
aI00
aI01
aa(lp101
I01
aI01
aI01
aI01
aI01
aI01
aI01
aI01
aI01
aI01
aI01
aI01
aI01
aI01
aI01
aI01
aI01
aI01
aasg53
I18
sbsS'layoutText'
p102
(lp103
S'%%%%%%%%%%%%%%%%%%%%%%%%%%%%%%%%%%'
p104
aS'%   .%.%.%  %..%      %   %    %4%'
p105
aS'% % %%.%.%  % %%  %.%o  %.   % %2%'
p106
aS'% %  % %    %  %  %%% % %%%%%%%% %'
p107
aS'% %% %.% %. %  %  %    . . % % % %'
p108
aS'% % .% %    %  %  % .%   .o    % %'
p109
aS'% % %% %% %%%     %  %%%.%%%%%%% %'
p110
aS'% %        .  .%  %  %... ..%  % %'
p111
aS'% %% %.%. %.% .   %  %%%.%%%%. % %'
p112
aS'% % .%%%%.%%%  %   . %.% .%.% %% %'
p113
aS'% %  %.. ...%  %  %.  .        % %'
p114
aS'% %%%%%%%.%%%  %     %%% %% %% % %'
p115
aS'% %    o.   %. %  %  %    % %. % %'
p116
aS'% % % % . .    %  %  % .% %.% %% %'
p117
aS'% %%%%%%%% % %%%  %  %    % %  % %'
p118
aS'%1% %   .%  o%.%  %% %  %.%.%% % %'
p119
aS'%3%    %   %      %..%  %.%.%.   %'
p120
aS'%%%%%%%%%%%%%%%%%%%%%%%%%%%%%%%%%%'
p121
asbsS'blueTeamName'
p122
S'HAL9001'
p123
sS'actions'
p124
(lp125
(I1
S'South'
p126
tp127
a(I2
S'North'
p128
tp129
a(I3
g126
tp130
a(I0
g128
tp131
a(I1
g126
tp132
a(I2
g128
tp133
a(I3
g126
tp134
a(I0
g128
tp135
a(I1
g126
tp136
a(I2
g128
tp137
a(I3
g126
tp138
a(I0
g128
tp139
a(I1
g126
tp140
a(I2
g128
tp141
a(I3
g126
tp142
a(I0
g128
tp143
a(I1
g126
tp144
a(I2
g128
tp145
a(I3
g126
tp146
a(I0
g128
tp147
a(I1
g126
tp148
a(I2
g128
tp149
a(I3
g126
tp150
a(I0
g128
tp151
a(I1
g126
tp152
a(I2
g128
tp153
a(I3
g126
tp154
a(I0
g128
tp155
a(I1
g126
tp156
a(I2
g128
tp157
a(I3
g126
tp158
a(I0
g128
tp159
a(I1
g126
tp160
a(I2
g128
tp161
a(I3
g126
tp162
a(I0
g128
tp163
a(I1
g126
tp164
a(I2
g128
tp165
a(I3
g126
tp166
a(I0
g128
tp167
a(I1
g126
tp168
a(I2
g128
tp169
a(I3
g126
tp170
a(I0
g128
tp171
a(I1
g126
tp172
a(I2
g128
tp173
a(I3
g126
tp174
a(I0
g128
tp175
a(I1
g126
tp176
a(I2
g128
tp177
a(I3
g126
tp178
a(I0
g128
tp179
a(I1
g126
tp180
a(I2
g128
tp181
a(I3
g126
tp182
a(I0
g128
tp183
a(I1
S'West'
p184
tp185
a(I2
g128
tp186
a(I3
g126
tp187
a(I0
S'East'
p188
tp189
a(I1
g184
tp190
a(I2
g188
tp191
a(I3
g184
tp192
a(I0
g188
tp193
a(I1
g128
tp194
a(I2
g188
tp195
a(I3
g184
tp196
a(I0
g126
tp197
a(I1
g128
tp198
a(I2
g126
tp199
a(I3
g128
tp200
a(I0
g126
tp201
a(I1
g184
tp202
a(I2
g126
tp203
a(I3
g128
tp204
a(I0
g188
tp205
a(I1
g128
tp206
a(I2
g188
tp207
a(I3
g184
tp208
a(I0
g126
tp209
a(I1
g128
tp210
a(I2
g126
tp211
a(I3
g128
tp212
a(I0
g126
tp213
a(I1
g188
tp214
a(I2
g126
tp215
a(I3
g128
tp216
a(I0
g184
tp217
a(I1
g128
tp218
a(I2
g184
tp219
a(I3
g188
tp220
a(I0
g126
tp221
a(I1
g128
tp222
a(I2
g126
tp223
a(I3
g128
tp224
a(I0
g126
tp225
a(I1
g184
tp226
a(I2
g126
tp227
a(I3
g128
tp228
a(I0
g188
tp229
a(I1
g184
tp230
a(I2
g188
tp231
a(I3
g184
tp232
a(I0
g188
tp233
a(I1
g184
tp234
a(I2
g188
tp235
a(I3
g184
tp236
a(I0
g188
tp237
a(I1
g184
tp238
a(I2
g188
tp239
a(I3
g184
tp240
a(I0
g188
tp241
a(I1
g184
tp242
a(I2
g188
tp243
a(I3
g184
tp244
a(I0
g188
tp245
a(I1
g184
tp246
a(I2
g188
tp247
a(I3
g184
tp248
a(I0
g188
tp249
a(I1
g184
tp250
a(I2
g188
tp251
a(I3
g184
tp252
a(I0
g188
tp253
a(I1
g184
tp254
a(I2
g188
tp255
a(I3
g184
tp256
a(I0
g188
tp257
a(I1
g184
tp258
a(I2
g188
tp259
a(I3
g184
tp260
a(I0
g188
tp261
a(I1
g184
tp262
a(I2
g188
tp263
a(I3
g184
tp264
a(I0
g188
tp265
a(I1
g128
tp266
a(I2
g188
tp267
a(I3
g184
tp268
a(I0
g126
tp269
a(I1
g184
tp270
a(I2
g188
tp271
a(I3
g184
tp272
a(I0
g188
tp273
a(I1
g184
tp274
a(I2
g126
tp275
a(I3
g128
tp276
a(I0
g188
tp277
a(I1
g184
tp278
a(I2
g188
tp279
a(I3
g184
tp280
a(I0
g188
tp281
a(I1
g126
tp282
a(I2
g188
tp283
a(I3
S'Stop'
p284
tp285
a(I0
g126
tp286
a(I1
g126
tp287
a(I2
g126
tp288
a(I3
g188
tp289
a(I0
g284
tp290
a(I1
g284
tp291
a(I2
g284
tp292
a(I3
g284
tp293
a(I0
g284
tp294
a(I1
g284
tp295
a(I2
g284
tp296
a(I3
g284
tp297
a(I0
g284
tp298
a(I1
g284
tp299
a(I2
g284
tp300
a(I3
g284
tp301
a(I0
g284
tp302
a(I1
g284
tp303
a(I2
g284
tp304
a(I3
g284
tp305
a(I0
g284
tp306
a(I1
g284
tp307
a(I2
g284
tp308
a(I3
g284
tp309
a(I0
g284
tp310
a(I1
g284
tp311
a(I2
g284
tp312
a(I3
g284
tp313
a(I0
g284
tp314
a(I1
g284
tp315
a(I2
g284
tp316
a(I3
g284
tp317
a(I0
g284
tp318
a(I1
g284
tp319
a(I2
g284
tp320
a(I3
g284
tp321
a(I0
g284
tp322
a(I1
g284
tp323
a(I2
g284
tp324
a(I3
g284
tp325
a(I0
g284
tp326
a(I1
g284
tp327
a(I2
g284
tp328
a(I3
g284
tp329
a(I0
g284
tp330
a(I1
g284
tp331
a(I2
g284
tp332
a(I3
g284
tp333
a(I0
g284
tp334
a(I1
g284
tp335
a(I2
g284
tp336
a(I3
g284
tp337
a(I0
g284
tp338
a(I1
g284
tp339
a(I2
g284
tp340
a(I3
g284
tp341
a(I0
g284
tp342
a(I1
g284
tp343
a(I2
g284
tp344
a(I3
g284
tp345
a(I0
g284
tp346
a(I1
g284
tp347
a(I2
g284
tp348
a(I3
g284
tp349
a(I0
g284
tp350
a(I1
g284
tp351
a(I2
g284
tp352
a(I3
g284
tp353
a(I0
g284
tp354
a(I1
g284
tp355
a(I2
g284
tp356
a(I3
g284
tp357
a(I0
g284
tp358
a(I1
g284
tp359
a(I2
g284
tp360
a(I3
g284
tp361
a(I0
g284
tp362
a(I1
g284
tp363
a(I2
g284
tp364
a(I3
g284
tp365
a(I0
g284
tp366
a(I1
g284
tp367
a(I2
g284
tp368
a(I3
g284
tp369
a(I0
g284
tp370
a(I1
g284
tp371
a(I2
g284
tp372
a(I3
g284
tp373
a(I0
g284
tp374
a(I1
g284
tp375
a(I2
g284
tp376
a(I3
g284
tp377
a(I0
g284
tp378
a(I1
g284
tp379
a(I2
g284
tp380
a(I3
g284
tp381
a(I0
g284
tp382
a(I1
g284
tp383
a(I2
g284
tp384
a(I3
g284
tp385
a(I0
g284
tp386
a(I1
g284
tp387
a(I2
g284
tp388
a(I3
g284
tp389
a(I0
g284
tp390
a(I1
g284
tp391
a(I2
g284
tp392
a(I3
g284
tp393
a(I0
g284
tp394
a(I1
g284
tp395
a(I2
g284
tp396
a(I3
g284
tp397
a(I0
g284
tp398
a(I1
g284
tp399
a(I2
g284
tp400
a(I3
g284
tp401
a(I0
g284
tp402
a(I1
g284
tp403
a(I2
g284
tp404
a(I3
g284
tp405
a(I0
g284
tp406
a(I1
g284
tp407
a(I2
g284
tp408
a(I3
g284
tp409
a(I0
g284
tp410
a(I1
g284
tp411
a(I2
g284
tp412
a(I3
g284
tp413
a(I0
g284
tp414
a(I1
g284
tp415
a(I2
g284
tp416
a(I3
g284
tp417
a(I0
g284
tp418
a(I1
g284
tp419
a(I2
g284
tp420
a(I3
g284
tp421
a(I0
g284
tp422
a(I1
g284
tp423
a(I2
g284
tp424
a(I3
g284
tp425
a(I0
g284
tp426
a(I1
g284
tp427
a(I2
g284
tp428
a(I3
g284
tp429
a(I0
g284
tp430
a(I1
g284
tp431
a(I2
g284
tp432
a(I3
g284
tp433
a(I0
g284
tp434
a(I1
g284
tp435
a(I2
g284
tp436
a(I3
g284
tp437
a(I0
g284
tp438
a(I1
g284
tp439
a(I2
g284
tp440
a(I3
g284
tp441
a(I0
g284
tp442
a(I1
g284
tp443
a(I2
g284
tp444
a(I3
g284
tp445
a(I0
g284
tp446
a(I1
g284
tp447
a(I2
g284
tp448
a(I3
g284
tp449
a(I0
g284
tp450
a(I1
g284
tp451
a(I2
g284
tp452
a(I3
g284
tp453
a(I0
g284
tp454
a(I1
g284
tp455
a(I2
g284
tp456
a(I3
g284
tp457
a(I0
g284
tp458
a(I1
g284
tp459
a(I2
g284
tp460
a(I3
g284
tp461
a(I0
g284
tp462
a(I1
g284
tp463
a(I2
g284
tp464
a(I3
g284
tp465
a(I0
g284
tp466
a(I1
g284
tp467
a(I2
g284
tp468
a(I3
g284
tp469
a(I0
g284
tp470
a(I1
g284
tp471
a(I2
g284
tp472
a(I3
g284
tp473
a(I0
g284
tp474
a(I1
g284
tp475
a(I2
g284
tp476
a(I3
g284
tp477
a(I0
g284
tp478
a(I1
g284
tp479
a(I2
g284
tp480
a(I3
g284
tp481
a(I0
g284
tp482
a(I1
g284
tp483
a(I2
g284
tp484
a(I3
g284
tp485
a(I0
g284
tp486
a(I1
g284
tp487
a(I2
g284
tp488
a(I3
g284
tp489
a(I0
g284
tp490
a(I1
g284
tp491
a(I2
g284
tp492
a(I3
g284
tp493
a(I0
g284
tp494
a(I1
g284
tp495
a(I2
g284
tp496
a(I3
g284
tp497
a(I0
g284
tp498
a(I1
g284
tp499
a(I2
g284
tp500
a(I3
g284
tp501
a(I0
g284
tp502
a(I1
g284
tp503
a(I2
g284
tp504
a(I3
g284
tp505
a(I0
g284
tp506
a(I1
g284
tp507
a(I2
g284
tp508
a(I3
g284
tp509
a(I0
g284
tp510
a(I1
g284
tp511
a(I2
g284
tp512
a(I3
g284
tp513
a(I0
g284
tp514
a(I1
g284
tp515
a(I2
g284
tp516
a(I3
g284
tp517
a(I0
g284
tp518
a(I1
g284
tp519
a(I2
g284
tp520
a(I3
g284
tp521
a(I0
g284
tp522
a(I1
g284
tp523
a(I2
g284
tp524
a(I3
g284
tp525
a(I0
g284
tp526
a(I1
g284
tp527
a(I2
g284
tp528
a(I3
g284
tp529
a(I0
g284
tp530
a(I1
g284
tp531
a(I2
g284
tp532
a(I3
g284
tp533
a(I0
g284
tp534
a(I1
g284
tp535
a(I2
g284
tp536
a(I3
g284
tp537
a(I0
g284
tp538
a(I1
g284
tp539
a(I2
g284
tp540
a(I3
g284
tp541
a(I0
g284
tp542
a(I1
g284
tp543
a(I2
g284
tp544
a(I3
g284
tp545
a(I0
g284
tp546
a(I1
g284
tp547
a(I2
g284
tp548
a(I3
g284
tp549
a(I0
g284
tp550
a(I1
g284
tp551
a(I2
g284
tp552
a(I3
g284
tp553
a(I0
g284
tp554
a(I1
g284
tp555
a(I2
g284
tp556
a(I3
g284
tp557
a(I0
g284
tp558
a(I1
g284
tp559
a(I2
g284
tp560
a(I3
g284
tp561
a(I0
g284
tp562
a(I1
g284
tp563
a(I2
g284
tp564
a(I3
g284
tp565
a(I0
g284
tp566
a(I1
g284
tp567
a(I2
g284
tp568
a(I3
g284
tp569
a(I0
g284
tp570
a(I1
g284
tp571
a(I2
g284
tp572
a(I3
g284
tp573
a(I0
g284
tp574
a(I1
g284
tp575
a(I2
g284
tp576
a(I3
g284
tp577
a(I0
g284
tp578
a(I1
g284
tp579
a(I2
g284
tp580
a(I3
g284
tp581
a(I0
g284
tp582
a(I1
g284
tp583
a(I2
g284
tp584
a(I3
g284
tp585
a(I0
g284
tp586
a(I1
g284
tp587
a(I2
g284
tp588
a(I3
g284
tp589
a(I0
g284
tp590
a(I1
g284
tp591
a(I2
g284
tp592
a(I3
g284
tp593
a(I0
g284
tp594
a(I1
g284
tp595
a(I2
g284
tp596
a(I3
g284
tp597
a(I0
g284
tp598
a(I1
g284
tp599
a(I2
g284
tp600
a(I3
g284
tp601
a(I0
g284
tp602
a(I1
g284
tp603
a(I2
g284
tp604
a(I3
g284
tp605
a(I0
g284
tp606
a(I1
g284
tp607
a(I2
g284
tp608
a(I3
g284
tp609
a(I0
g284
tp610
a(I1
g284
tp611
a(I2
g284
tp612
a(I3
g284
tp613
a(I0
g284
tp614
a(I1
g284
tp615
a(I2
g284
tp616
a(I3
g284
tp617
a(I0
g284
tp618
a(I1
g284
tp619
a(I2
g284
tp620
a(I3
g284
tp621
a(I0
g284
tp622
a(I1
g284
tp623
a(I2
g284
tp624
a(I3
g284
tp625
a(I0
g284
tp626
a(I1
g284
tp627
a(I2
g284
tp628
a(I3
g284
tp629
a(I0
g284
tp630
a(I1
g284
tp631
a(I2
g284
tp632
a(I3
g284
tp633
a(I0
g284
tp634
a(I1
g284
tp635
a(I2
g284
tp636
a(I3
g284
tp637
a(I0
g284
tp638
a(I1
g284
tp639
a(I2
g284
tp640
a(I3
g284
tp641
a(I0
g284
tp642
a(I1
g284
tp643
a(I2
g284
tp644
a(I3
g284
tp645
a(I0
g284
tp646
a(I1
g284
tp647
a(I2
g284
tp648
a(I3
g284
tp649
a(I0
g284
tp650
a(I1
g284
tp651
a(I2
g284
tp652
a(I3
g284
tp653
a(I0
g284
tp654
a(I1
g284
tp655
a(I2
g284
tp656
a(I3
g284
tp657
a(I0
g284
tp658
a(I1
g284
tp659
a(I2
g284
tp660
a(I3
g284
tp661
a(I0
g284
tp662
a(I1
g284
tp663
a(I2
g284
tp664
a(I3
g284
tp665
a(I0
g284
tp666
a(I1
g284
tp667
a(I2
g284
tp668
a(I3
g284
tp669
a(I0
g284
tp670
a(I1
g284
tp671
a(I2
g284
tp672
a(I3
g284
tp673
a(I0
g284
tp674
a(I1
g284
tp675
a(I2
g284
tp676
a(I3
g284
tp677
a(I0
g284
tp678
a(I1
g284
tp679
a(I2
g284
tp680
a(I3
g284
tp681
a(I0
g284
tp682
a(I1
g284
tp683
a(I2
g284
tp684
a(I3
g284
tp685
a(I0
g284
tp686
a(I1
g284
tp687
a(I2
g284
tp688
a(I3
g284
tp689
a(I0
g284
tp690
a(I1
g284
tp691
a(I2
g284
tp692
a(I3
g284
tp693
a(I0
g284
tp694
a(I1
g284
tp695
a(I2
g284
tp696
a(I3
g284
tp697
a(I0
g284
tp698
a(I1
g284
tp699
a(I2
g284
tp700
a(I3
g284
tp701
a(I0
g284
tp702
a(I1
g284
tp703
a(I2
g284
tp704
a(I3
g284
tp705
a(I0
g284
tp706
a(I1
g284
tp707
a(I2
g284
tp708
a(I3
g284
tp709
a(I0
g284
tp710
a(I1
g284
tp711
a(I2
g284
tp712
a(I3
g284
tp713
a(I0
g284
tp714
a(I1
g284
tp715
a(I2
g284
tp716
a(I3
g284
tp717
a(I0
g284
tp718
a(I1
g284
tp719
a(I2
g284
tp720
a(I3
g284
tp721
a(I0
g284
tp722
a(I1
g284
tp723
a(I2
g284
tp724
a(I3
g284
tp725
a(I0
g284
tp726
a(I1
g284
tp727
a(I2
g284
tp728
a(I3
g284
tp729
a(I0
g284
tp730
a(I1
g284
tp731
a(I2
g284
tp732
a(I3
g284
tp733
a(I0
g284
tp734
a(I1
g284
tp735
a(I2
g284
tp736
a(I3
g284
tp737
a(I0
g284
tp738
a(I1
g284
tp739
a(I2
g284
tp740
a(I3
g284
tp741
a(I0
g284
tp742
a(I1
g284
tp743
a(I2
g284
tp744
a(I3
g284
tp745
a(I0
g284
tp746
a(I1
g284
tp747
a(I2
g284
tp748
a(I3
g284
tp749
a(I0
g284
tp750
a(I1
g284
tp751
a(I2
g284
tp752
a(I3
g284
tp753
a(I0
g284
tp754
a(I1
g284
tp755
a(I2
g284
tp756
a(I3
g284
tp757
a(I0
g284
tp758
a(I1
g284
tp759
a(I2
g284
tp760
a(I3
g284
tp761
a(I0
g284
tp762
a(I1
g284
tp763
a(I2
g284
tp764
a(I3
g284
tp765
a(I0
g284
tp766
a(I1
g284
tp767
a(I2
g284
tp768
a(I3
g284
tp769
a(I0
g284
tp770
a(I1
g284
tp771
a(I2
g284
tp772
a(I3
g284
tp773
a(I0
g284
tp774
a(I1
g284
tp775
a(I2
g284
tp776
a(I3
g284
tp777
a(I0
g284
tp778
a(I1
g284
tp779
a(I2
g284
tp780
a(I3
g284
tp781
a(I0
g284
tp782
a(I1
g284
tp783
a(I2
g284
tp784
a(I3
g284
tp785
a(I0
g284
tp786
a(I1
g284
tp787
a(I2
g284
tp788
a(I3
g284
tp789
a(I0
g284
tp790
a(I1
g284
tp791
a(I2
g284
tp792
a(I3
g284
tp793
a(I0
g284
tp794
a(I1
g284
tp795
a(I2
g284
tp796
a(I3
g284
tp797
a(I0
g284
tp798
a(I1
g284
tp799
a(I2
g284
tp800
a(I3
g284
tp801
a(I0
g284
tp802
a(I1
g284
tp803
a(I2
g284
tp804
a(I3
g284
tp805
a(I0
g284
tp806
a(I1
g284
tp807
a(I2
g284
tp808
a(I3
g284
tp809
a(I0
g284
tp810
a(I1
g284
tp811
a(I2
g284
tp812
a(I3
g284
tp813
a(I0
g284
tp814
a(I1
g284
tp815
a(I2
g284
tp816
a(I3
g284
tp817
a(I0
g284
tp818
a(I1
g284
tp819
a(I2
g284
tp820
a(I3
g284
tp821
a(I0
g284
tp822
a(I1
g284
tp823
a(I2
g284
tp824
a(I3
g284
tp825
a(I0
g284
tp826
a(I1
g284
tp827
a(I2
g284
tp828
a(I3
g284
tp829
a(I0
g284
tp830
a(I1
g284
tp831
a(I2
g284
tp832
a(I3
g284
tp833
a(I0
g284
tp834
a(I1
g284
tp835
a(I2
g284
tp836
a(I3
g284
tp837
a(I0
g284
tp838
a(I1
g284
tp839
a(I2
g284
tp840
a(I3
g284
tp841
a(I0
g284
tp842
a(I1
g284
tp843
a(I2
g284
tp844
a(I3
g284
tp845
a(I0
g284
tp846
a(I1
g284
tp847
a(I2
g284
tp848
a(I3
g284
tp849
a(I0
g284
tp850
a(I1
g284
tp851
a(I2
g284
tp852
a(I3
g284
tp853
a(I0
g284
tp854
a(I1
g284
tp855
a(I2
g284
tp856
a(I3
g284
tp857
a(I0
g284
tp858
a(I1
g284
tp859
a(I2
g284
tp860
a(I3
g284
tp861
a(I0
g284
tp862
a(I1
g284
tp863
a(I2
g284
tp864
a(I3
g284
tp865
a(I0
g284
tp866
a(I1
g284
tp867
a(I2
g284
tp868
a(I3
g284
tp869
a(I0
g284
tp870
a(I1
g284
tp871
a(I2
g284
tp872
a(I3
g284
tp873
a(I0
g284
tp874
a(I1
g284
tp875
a(I2
g284
tp876
a(I3
g284
tp877
a(I0
g284
tp878
a(I1
g284
tp879
a(I2
g284
tp880
a(I3
g284
tp881
a(I0
g284
tp882
a(I1
g284
tp883
a(I2
g284
tp884
a(I3
g284
tp885
a(I0
g284
tp886
a(I1
g284
tp887
a(I2
g284
tp888
a(I3
g284
tp889
a(I0
g284
tp890
a(I1
g284
tp891
a(I2
g284
tp892
a(I3
g284
tp893
a(I0
g284
tp894
a(I1
g284
tp895
a(I2
g284
tp896
a(I3
g284
tp897
a(I0
g284
tp898
a(I1
g284
tp899
a(I2
g284
tp900
a(I3
g284
tp901
a(I0
g284
tp902
a(I1
g284
tp903
a(I2
g284
tp904
a(I3
g284
tp905
a(I0
g284
tp906
a(I1
g284
tp907
a(I2
g284
tp908
a(I3
g284
tp909
a(I0
g284
tp910
a(I1
g284
tp911
a(I2
g284
tp912
a(I3
g284
tp913
a(I0
g284
tp914
a(I1
g284
tp915
a(I2
g284
tp916
a(I3
g284
tp917
a(I0
g284
tp918
a(I1
g284
tp919
a(I2
g284
tp920
a(I3
g284
tp921
a(I0
g284
tp922
a(I1
g284
tp923
a(I2
g284
tp924
a(I3
g284
tp925
a(I0
g284
tp926
a(I1
g284
tp927
a(I2
g284
tp928
a(I3
g284
tp929
a(I0
g284
tp930
a(I1
g284
tp931
a(I2
g284
tp932
a(I3
g284
tp933
a(I0
g284
tp934
a(I1
g284
tp935
a(I2
g284
tp936
a(I3
g284
tp937
a(I0
g284
tp938
a(I1
g284
tp939
a(I2
g284
tp940
a(I3
g284
tp941
a(I0
g284
tp942
a(I1
g284
tp943
a(I2
g284
tp944
a(I3
g284
tp945
a(I0
g284
tp946
a(I1
g284
tp947
a(I2
g284
tp948
a(I3
g284
tp949
a(I0
g284
tp950
a(I1
g284
tp951
a(I2
g284
tp952
a(I3
g284
tp953
a(I0
g284
tp954
a(I1
g284
tp955
a(I2
g284
tp956
a(I3
g284
tp957
a(I0
g284
tp958
a(I1
g284
tp959
a(I2
g284
tp960
a(I3
g284
tp961
a(I0
g284
tp962
a(I1
g284
tp963
a(I2
g284
tp964
a(I3
g284
tp965
a(I0
g284
tp966
a(I1
g284
tp967
a(I2
g284
tp968
a(I3
g284
tp969
a(I0
g284
tp970
a(I1
g284
tp971
a(I2
g284
tp972
a(I3
g284
tp973
a(I0
g284
tp974
a(I1
g284
tp975
a(I2
g284
tp976
a(I3
g284
tp977
a(I0
g284
tp978
a(I1
g284
tp979
a(I2
g284
tp980
a(I3
g284
tp981
a(I0
g284
tp982
a(I1
g284
tp983
a(I2
g284
tp984
a(I3
g284
tp985
a(I0
g284
tp986
a(I1
g284
tp987
a(I2
g284
tp988
a(I3
g284
tp989
a(I0
g284
tp990
a(I1
g284
tp991
a(I2
g284
tp992
a(I3
g284
tp993
a(I0
g284
tp994
a(I1
g284
tp995
a(I2
g284
tp996
a(I3
g284
tp997
a(I0
g284
tp998
a(I1
g284
tp999
a(I2
g284
tp1000
a(I3
g284
tp1001
a(I0
g284
tp1002
a(I1
g284
tp1003
a(I2
g284
tp1004
a(I3
g284
tp1005
a(I0
g284
tp1006
a(I1
g284
tp1007
a(I2
g284
tp1008
a(I3
g284
tp1009
a(I0
g284
tp1010
a(I1
g284
tp1011
a(I2
g284
tp1012
a(I3
g284
tp1013
a(I0
g284
tp1014
a(I1
g284
tp1015
a(I2
g284
tp1016
a(I3
g284
tp1017
a(I0
g284
tp1018
a(I1
g284
tp1019
a(I2
g284
tp1020
a(I3
g284
tp1021
a(I0
g284
tp1022
a(I1
g284
tp1023
a(I2
g284
tp1024
a(I3
g284
tp1025
a(I0
g284
tp1026
a(I1
g284
tp1027
a(I2
g284
tp1028
a(I3
g284
tp1029
a(I0
g284
tp1030
a(I1
g284
tp1031
a(I2
g284
tp1032
a(I3
g284
tp1033
a(I0
g284
tp1034
a(I1
g284
tp1035
a(I2
g284
tp1036
a(I3
g284
tp1037
a(I0
g284
tp1038
a(I1
g284
tp1039
a(I2
g284
tp1040
a(I3
g284
tp1041
a(I0
g284
tp1042
a(I1
g284
tp1043
a(I2
g284
tp1044
a(I3
g284
tp1045
a(I0
g284
tp1046
a(I1
g284
tp1047
a(I2
g284
tp1048
a(I3
g284
tp1049
a(I0
g284
tp1050
a(I1
g284
tp1051
a(I2
g284
tp1052
a(I3
g284
tp1053
a(I0
g284
tp1054
a(I1
g284
tp1055
a(I2
g284
tp1056
a(I3
g284
tp1057
a(I0
g284
tp1058
a(I1
g284
tp1059
a(I2
g284
tp1060
a(I3
g284
tp1061
a(I0
g284
tp1062
a(I1
g284
tp1063
a(I2
g284
tp1064
a(I3
g284
tp1065
a(I0
g284
tp1066
a(I1
g284
tp1067
a(I2
g284
tp1068
a(I3
g284
tp1069
a(I0
g284
tp1070
a(I1
g284
tp1071
a(I2
g284
tp1072
a(I3
g284
tp1073
a(I0
g284
tp1074
a(I1
g284
tp1075
a(I2
g284
tp1076
a(I3
g284
tp1077
a(I0
g284
tp1078
a(I1
g284
tp1079
a(I2
g284
tp1080
a(I3
g284
tp1081
a(I0
g284
tp1082
a(I1
g284
tp1083
a(I2
g284
tp1084
a(I3
g284
tp1085
a(I0
g284
tp1086
a(I1
g284
tp1087
a(I2
g284
tp1088
a(I3
g284
tp1089
a(I0
g284
tp1090
a(I1
g284
tp1091
a(I2
g284
tp1092
a(I3
g284
tp1093
a(I0
g284
tp1094
a(I1
g284
tp1095
a(I2
g284
tp1096
a(I3
g284
tp1097
a(I0
g284
tp1098
a(I1
g284
tp1099
a(I2
g284
tp1100
a(I3
g284
tp1101
a(I0
g284
tp1102
a(I1
g284
tp1103
a(I2
g284
tp1104
a(I3
g284
tp1105
a(I0
g284
tp1106
a(I1
g284
tp1107
a(I2
g284
tp1108
a(I3
g284
tp1109
a(I0
g284
tp1110
a(I1
g284
tp1111
a(I2
g284
tp1112
a(I3
g284
tp1113
a(I0
g284
tp1114
a(I1
g284
tp1115
a(I2
g284
tp1116
a(I3
g284
tp1117
a(I0
g284
tp1118
a(I1
g284
tp1119
a(I2
g284
tp1120
a(I3
g284
tp1121
a(I0
g284
tp1122
a(I1
g284
tp1123
a(I2
g284
tp1124
a(I3
g284
tp1125
a(I0
g284
tp1126
a(I1
g284
tp1127
a(I2
g284
tp1128
a(I3
g284
tp1129
a(I0
g284
tp1130
a(I1
g284
tp1131
a(I2
g284
tp1132
a(I3
g284
tp1133
a(I0
g284
tp1134
a(I1
g284
tp1135
a(I2
g284
tp1136
a(I3
g284
tp1137
a(I0
g284
tp1138
a(I1
g284
tp1139
a(I2
g284
tp1140
a(I3
g284
tp1141
a(I0
g284
tp1142
a(I1
g284
tp1143
a(I2
g284
tp1144
a(I3
g284
tp1145
a(I0
g284
tp1146
a(I1
g284
tp1147
a(I2
g284
tp1148
a(I3
g284
tp1149
a(I0
g284
tp1150
a(I1
g284
tp1151
a(I2
g284
tp1152
a(I3
g284
tp1153
a(I0
g284
tp1154
a(I1
g284
tp1155
a(I2
g284
tp1156
a(I3
g284
tp1157
a(I0
g284
tp1158
a(I1
g284
tp1159
a(I2
g284
tp1160
a(I3
g284
tp1161
a(I0
g284
tp1162
a(I1
g284
tp1163
a(I2
g284
tp1164
a(I3
g284
tp1165
a(I0
g284
tp1166
a(I1
g284
tp1167
a(I2
g284
tp1168
a(I3
g284
tp1169
a(I0
g284
tp1170
a(I1
g284
tp1171
a(I2
g284
tp1172
a(I3
g284
tp1173
a(I0
g284
tp1174
a(I1
g284
tp1175
a(I2
g284
tp1176
a(I3
g284
tp1177
a(I0
g284
tp1178
a(I1
g284
tp1179
a(I2
g284
tp1180
a(I3
g284
tp1181
a(I0
g284
tp1182
a(I1
g284
tp1183
a(I2
g284
tp1184
a(I3
g284
tp1185
a(I0
g284
tp1186
a(I1
g284
tp1187
a(I2
g284
tp1188
a(I3
g284
tp1189
a(I0
g284
tp1190
a(I1
g284
tp1191
a(I2
g284
tp1192
a(I3
g284
tp1193
a(I0
g284
tp1194
a(I1
g284
tp1195
a(I2
g284
tp1196
a(I3
g284
tp1197
a(I0
g284
tp1198
a(I1
g284
tp1199
a(I2
g284
tp1200
a(I3
g284
tp1201
a(I0
g284
tp1202
a(I1
g284
tp1203
a(I2
g284
tp1204
a(I3
g284
tp1205
a(I0
g284
tp1206
a(I1
g284
tp1207
a(I2
g284
tp1208
a(I3
g284
tp1209
a(I0
g284
tp1210
a(I1
g284
tp1211
a(I2
g284
tp1212
a(I3
g284
tp1213
a(I0
g284
tp1214
a(I1
g284
tp1215
a(I2
g284
tp1216
a(I3
g284
tp1217
a(I0
g284
tp1218
a(I1
g284
tp1219
a(I2
g284
tp1220
a(I3
g284
tp1221
a(I0
g284
tp1222
a(I1
g284
tp1223
a(I2
g284
tp1224
a(I3
g284
tp1225
a(I0
g284
tp1226
a(I1
g284
tp1227
a(I2
g284
tp1228
a(I3
g284
tp1229
a(I0
g284
tp1230
a(I1
g284
tp1231
a(I2
g284
tp1232
a(I3
g284
tp1233
a(I0
g284
tp1234
a(I1
g284
tp1235
a(I2
g284
tp1236
a(I3
g284
tp1237
a(I0
g284
tp1238
a(I1
g284
tp1239
a(I2
g284
tp1240
a(I3
g284
tp1241
a(I0
g284
tp1242
a(I1
g284
tp1243
a(I2
g284
tp1244
a(I3
g284
tp1245
a(I0
g284
tp1246
a(I1
g284
tp1247
a(I2
g284
tp1248
a(I3
g284
tp1249
a(I0
g284
tp1250
a(I1
g284
tp1251
a(I2
g284
tp1252
a(I3
g284
tp1253
a(I0
g284
tp1254
a(I1
g284
tp1255
a(I2
g284
tp1256
a(I3
g284
tp1257
a(I0
g284
tp1258
a(I1
g284
tp1259
a(I2
g284
tp1260
a(I3
g284
tp1261
a(I0
g284
tp1262
a(I1
g284
tp1263
a(I2
g284
tp1264
a(I3
g284
tp1265
a(I0
g284
tp1266
a(I1
g284
tp1267
a(I2
g284
tp1268
a(I3
g284
tp1269
a(I0
g284
tp1270
a(I1
g284
tp1271
a(I2
g284
tp1272
a(I3
g284
tp1273
a(I0
g284
tp1274
a(I1
g284
tp1275
a(I2
g284
tp1276
a(I3
g284
tp1277
a(I0
g284
tp1278
a(I1
g284
tp1279
a(I2
g284
tp1280
a(I3
g284
tp1281
a(I0
g284
tp1282
a(I1
g284
tp1283
a(I2
g284
tp1284
a(I3
g284
tp1285
a(I0
g284
tp1286
a(I1
g284
tp1287
a(I2
g284
tp1288
a(I3
g284
tp1289
a(I0
g284
tp1290
a(I1
g284
tp1291
a(I2
g284
tp1292
a(I3
g284
tp1293
a(I0
g284
tp1294
a(I1
g284
tp1295
a(I2
g284
tp1296
a(I3
g284
tp1297
a(I0
g284
tp1298
a(I1
g284
tp1299
a(I2
g284
tp1300
a(I3
g284
tp1301
a(I0
g284
tp1302
a(I1
g284
tp1303
a(I2
g284
tp1304
a(I3
g284
tp1305
a(I0
g284
tp1306
a(I1
g284
tp1307
a(I2
g284
tp1308
a(I3
g284
tp1309
a(I0
g284
tp1310
a(I1
g284
tp1311
a(I2
g284
tp1312
a(I3
g284
tp1313
a(I0
g284
tp1314
a(I1
g284
tp1315
a(I2
g284
tp1316
a(I3
g284
tp1317
a(I0
g284
tp1318
a(I1
g284
tp1319
a(I2
g284
tp1320
a(I3
g284
tp1321
a(I0
g284
tp1322
a(I1
g284
tp1323
a(I2
g284
tp1324
a(I3
g284
tp1325
a(I0
g284
tp1326
a(I1
g284
tp1327
a(I2
g284
tp1328
a(I3
g284
tp1329
a(I0
g284
tp1330
asS'length'
p1331
I1200
sS'agents'
p1332
(lp1333
(igame
Agent
p1334
(dp1335
S'index'
p1336
I0
sba(igame
Agent
p1337
(dp1338
g1336
I0
sba(igame
Agent
p1339
(dp1340
g1336
I0
sba(igame
Agent
p1341
(dp1342
g1336
I0
sbasS'redTeamName'
p1343
S'2Pac'
p1344
s.