(dp1
S'layout'
p2
(ilayout
Layout
p3
(dp4
S'capsules'
p5
(lp6
(I24
I2
tp7
a(I26
I8
tp8
a(I7
I9
tp9
a(I9
I15
tp10
asS'numGhosts'
p11
I4
sS'food'
p12
(igame
Grid
p13
(dp14
S'CELLS_PER_INT'
p15
I30
sS'width'
p16
I34
sS'data'
p17
(lp18
(lp19
I00
aI00
aI00
aI00
aI00
aI00
aI00
aI00
aI00
aI00
aI00
aI00
aI00
aI00
aI00
aI00
aI00
aI00
aa(lp20
I00
aI00
aI00
aI00
aI00
aI00
aI00
aI00
aI00
aI00
aI00
aI00
aI00
aI00
aI00
aI00
aI00
aI00
aa(lp21
I00
aI00
aI00
aI00
aI00
aI00
aI00
aI00
aI00
aI00
aI00
aI00
aI00
aI00
aI00
aI00
aI00
aI00
aa(lp22
I00
aI00
aI00
aI00
aI00
aI00
aI00
aI00
aI00
aI00
aI00
aI00
aI00
aI00
aI00
aI00
aI00
aI00
aa(lp23
I00
aI00
aI00
aI00
aI00
aI00
aI00
aI00
aI01
aI00
aI01
aI00
aI01
aI00
aI01
aI00
aI01
aI00
aa(lp24
I00
aI00
aI00
aI00
aI00
aI00
aI00
aI00
aI00
aI00
aI00
aI00
aI00
aI00
aI00
aI00
aI00
aI00
aa(lp25
I00
aI00
aI00
aI00
aI00
aI00
aI00
aI00
aI00
aI00
aI00
aI00
aI00
aI00
aI00
aI01
aI00
aI00
aa(lp26
I00
aI00
aI00
aI00
aI00
aI00
aI00
aI00
aI01
aI00
aI00
aI00
aI00
aI00
aI00
aI00
aI00
aI00
aa(lp27
I00
aI00
aI00
aI00
aI01
aI00
aI00
aI00
aI00
aI00
aI00
aI00
aI00
aI00
aI00
aI00
aI00
aI00
aa(lp28
I00
aI00
aI01
aI01
aI00
aI00
aI00
aI01
aI01
aI01
aI00
aI00
aI01
aI00
aI01
aI00
aI00
aI00
aa(lp29
I00
aI00
aI00
aI00
aI00
aI00
aI00
aI00
aI00
aI01
aI00
aI00
aI00
aI00
aI00
aI00
aI00
aI00
aa(lp30
I00
aI01
aI00
aI01
aI00
aI00
aI01
aI00
aI01
aI00
aI00
aI00
aI00
aI00
aI00
aI01
aI01
aI00
aa(lp31
I00
aI00
aI00
aI00
aI00
aI00
aI00
aI00
aI00
aI00
aI00
aI00
aI00
aI00
aI00
aI00
aI00
aI00
aa(lp32
I00
aI01
aI00
aI00
aI00
aI00
aI00
aI01
aI00
aI01
aI00
aI00
aI00
aI00
aI01
aI00
aI01
aI00
aa(lp33
I00
aI01
aI00
aI00
aI00
aI00
aI00
aI00
aI00
aI00
aI00
aI00
aI00
aI01
aI00
aI00
aI01
aI00
aa(lp34
I00
aI00
aI00
aI00
aI00
aI00
aI00
aI00
aI00
aI00
aI00
aI00
aI00
aI00
aI00
aI00
aI00
aI00
aa(lp35
I00
aI00
aI00
aI00
aI00
aI00
aI00
aI00
aI00
aI00
aI00
aI00
aI00
aI00
aI00
aI00
aI00
aI00
aa(lp36
I00
aI00
aI00
aI00
aI00
aI00
aI00
aI00
aI00
aI00
aI00
aI00
aI00
aI00
aI00
aI00
aI00
aI00
aa(lp37
I00
aI00
aI00
aI00
aI00
aI00
aI00
aI00
aI00
aI00
aI00
aI00
aI00
aI00
aI00
aI00
aI00
aI00
aa(lp38
I00
aI01
aI00
aI00
aI01
aI00
aI00
aI00
aI00
aI00
aI00
aI00
aI00
aI00
aI00
aI00
aI01
aI00
aa(lp39
I00
aI01
aI00
aI01
aI00
aI00
aI00
aI00
aI01
aI00
aI01
aI00
aI00
aI00
aI00
aI00
aI01
aI00
aa(lp40
I00
aI00
aI00
aI00
aI00
aI00
aI00
aI00
aI00
aI00
aI00
aI00
aI00
aI00
aI00
aI00
aI00
aI00
aa(lp41
I00
aI01
aI01
aI00
aI00
aI00
aI00
aI00
aI00
aI01
aI00
aI01
aI00
aI00
aI01
aI00
aI01
aI00
aa(lp42
I00
aI00
aI00
aI00
aI00
aI00
aI00
aI00
aI01
aI00
aI00
aI00
aI00
aI00
aI00
aI00
aI00
aI00
aa(lp43
I00
aI00
aI00
aI01
aI00
aI01
aI00
aI00
aI01
aI01
aI01
aI00
aI00
aI00
aI01
aI01
aI00
aI00
aa(lp44
I00
aI00
aI00
aI00
aI00
aI00
aI00
aI00
aI00
aI00
aI00
aI00
aI00
aI01
aI00
aI00
aI00
aI00
aa(lp45
I00
aI00
aI00
aI00
aI00
aI00
aI00
aI00
aI00
aI01
aI00
aI00
aI00
aI00
aI00
aI00
aI00
aI00
aa(lp46
I00
aI00
aI01
aI00
aI00
aI00
aI00
aI00
aI00
aI00
aI00
aI00
aI00
aI00
aI00
aI00
aI00
aI00
aa(lp47
I00
aI00
aI00
aI00
aI00
aI00
aI00
aI00
aI00
aI00
aI00
aI00
aI00
aI00
aI00
aI00
aI00
aI00
aa(lp48
I00
aI01
aI00
aI01
aI00
aI01
aI00
aI01
aI00
aI01
aI00
aI00
aI00
aI00
aI00
aI00
aI00
aI00
aa(lp49
I00
aI00
aI00
aI00
aI00
aI00
aI00
aI00
aI00
aI00
aI00
aI00
aI00
aI00
aI00
aI00
aI00
aI00
aa(lp50
I00
aI00
aI00
aI00
aI00
aI00
aI00
aI00
aI00
aI00
aI00
aI00
aI00
aI00
aI00
aI00
aI00
aI00
aa(lp51
I00
aI00
aI00
aI00
aI00
aI00
aI00
aI00
aI00
aI00
aI00
aI00
aI00
aI00
aI00
aI00
aI00
aI00
aa(lp52
I00
aI00
aI00
aI00
aI00
aI00
aI00
aI00
aI00
aI00
aI00
aI00
aI00
aI00
aI00
aI00
aI00
aI00
aasS'height'
p53
I18
sbsS'agentPositions'
p54
(lp55
(I00
(I1
I2
tp56
tp57
a(I00
(I32
I15
tp58
tp59
a(I00
(I1
I1
tp60
tp61
a(I00
(I32
I16
tp62
tp63
asg53
I18
sg16
I34
sS'walls'
p64
(igame
Grid
p65
(dp66
g15
I30
sg16
I34
sg17
(lp67
(lp68
I01
aI01
aI01
aI01
aI01
aI01
aI01
aI01
aI01
aI01
aI01
aI01
aI01
aI01
aI01
aI01
aI01
aI01
aa(lp69
I01
aI00
aI00
aI00
aI00
aI00
aI00
aI00
aI00
aI00
aI00
aI00
aI00
aI00
aI00
aI00
aI00
aI01
aa(lp70
I01
aI01
aI01
aI01
aI01
aI01
aI01
aI01
aI01
aI01
aI01
aI01
aI01
aI01
aI01
aI01
aI00
aI01
aa(lp71
I01
aI00
aI01
aI00
aI00
aI01
aI00
aI00
aI00
aI00
aI00
aI00
aI00
aI00
aI00
aI00
aI00
aI01
aa(lp72
I01
aI00
aI01
aI00
aI00
aI00
aI00
aI01
aI00
aI01
aI00
aI01
aI00
aI01
aI00
aI01
aI00
aI01
aa(lp73
I01
aI00
aI01
aI01
aI01
aI01
aI01
aI01
aI01
aI01
aI00
aI01
aI01
aI01
aI01
aI01
aI01
aI01
aa(lp74
I01
aI00
aI01
aI00
aI00
aI00
aI00
aI00
aI00
aI01
aI00
aI00
aI00
aI00
aI00
aI00
aI00
aI01
aa(lp75
I01
aI00
aI01
aI00
aI00
aI00
aI01
aI00
aI00
aI00
aI00
aI01
aI00
aI00
aI01
aI00
aI00
aI01
aa(lp76
I01
aI00
aI01
aI01
aI00
aI01
aI01
aI01
aI01
aI01
aI01
aI01
aI01
aI01
aI01
aI01
aI00
aI01
aa(lp77
I01
aI00
aI00
aI00
aI00
aI00
aI01
aI00
aI00
aI00
aI00
aI00
aI00
aI00
aI00
aI00
aI00
aI01
aa(lp78
I01
aI01
aI01
aI01
aI01
aI00
aI01
aI01
aI01
aI00
aI01
aI01
aI01
aI00
aI01
aI01
aI01
aI01
aa(lp79
I01
aI00
aI00
aI00
aI00
aI00
aI00
aI00
aI00
aI00
aI00
aI00
aI00
aI00
aI00
aI00
aI00
aI01
aa(lp80
I01
aI00
aI01
aI01
aI00
aI00
aI00
aI00
aI01
aI01
aI01
aI01
aI01
aI00
aI01
aI01
aI01
aI01
aa(lp81
I01
aI00
aI00
aI00
aI00
aI01
aI00
aI00
aI00
aI00
aI00
aI00
aI00
aI00
aI00
aI01
aI00
aI01
aa(lp82
I01
aI00
aI01
aI00
aI00
aI01
aI00
aI00
aI00
aI01
aI01
aI01
aI01
aI00
aI01
aI01
aI00
aI01
aa(lp83
I01
aI01
aI01
aI00
aI01
aI01
aI01
aI01
aI01
aI01
aI00
aI00
aI01
aI00
aI00
aI00
aI00
aI01
aa(lp84
I01
aI00
aI00
aI00
aI00
aI00
aI00
aI00
aI00
aI01
aI00
aI00
aI00
aI00
aI00
aI01
aI00
aI01
aa(lp85
I01
aI00
aI01
aI00
aI00
aI00
aI00
aI00
aI01
aI00
aI00
aI00
aI00
aI00
aI00
aI00
aI00
aI01
aa(lp86
I01
aI00
aI00
aI00
aI00
aI01
aI00
aI00
aI01
aI01
aI01
aI01
aI01
aI01
aI00
aI01
aI01
aI01
aa(lp87
I01
aI00
aI01
aI01
aI00
aI01
aI01
aI01
aI01
aI00
aI00
aI00
aI01
aI00
aI00
aI01
aI00
aI01
aa(lp88
I01
aI00
aI01
aI00
aI00
aI00
aI00
aI00
aI00
aI00
aI00
aI00
aI01
aI00
aI00
aI00
aI00
aI01
aa(lp89
I01
aI01
aI01
aI01
aI00
aI01
aI01
aI01
aI01
aI01
aI00
aI00
aI00
aI00
aI01
aI01
aI00
aI01
aa(lp90
I01
aI00
aI00
aI00
aI00
aI00
aI00
aI00
aI00
aI00
aI00
aI00
aI00
aI00
aI00
aI00
aI00
aI01
aa(lp91
I01
aI01
aI01
aI01
aI00
aI01
aI01
aI01
aI00
aI01
aI01
aI01
aI00
aI01
aI01
aI01
aI01
aI01
aa(lp92
I01
aI00
aI00
aI00
aI00
aI00
aI00
aI00
aI00
aI00
aI00
aI01
aI00
aI00
aI00
aI00
aI00
aI01
aa(lp93
I01
aI00
aI01
aI01
aI01
aI01
aI01
aI01
aI01
aI01
aI01
aI01
aI01
aI00
aI01
aI01
aI00
aI01
aa(lp94
I01
aI00
aI00
aI01
aI00
aI00
aI01
aI00
aI00
aI00
aI00
aI01
aI00
aI00
aI00
aI01
aI00
aI01
aa(lp95
I01
aI00
aI00
aI00
aI00
aI00
aI00
aI00
aI01
aI00
aI00
aI00
aI00
aI00
aI00
aI01
aI00
aI01
aa(lp96
I01
aI01
aI01
aI01
aI01
aI01
aI01
aI00
aI01
aI01
aI01
aI01
aI01
aI01
aI01
aI01
aI00
aI01
aa(lp97
I01
aI00
aI01
aI00
aI01
aI00
aI01
aI00
aI01
aI00
aI01
aI00
aI00
aI00
aI00
aI01
aI00
aI01
aa(lp98
I01
aI00
aI00
aI00
aI00
aI00
aI00
aI00
aI00
aI00
aI00
aI00
aI01
aI00
aI00
aI01
aI00
aI01
aa(lp99
I01
aI00
aI01
aI01
aI01
aI01
aI01
aI01
aI01
aI01
aI01
aI01
aI01
aI01
aI01
aI01
aI01
aI01
aa(lp100
I01
aI00
aI00
aI00
aI00
aI00
aI00
aI00
aI00
aI00
aI00
aI00
aI00
aI00
aI00
aI00
aI00
aI01
aa(lp101
I01
aI01
aI01
aI01
aI01
aI01
aI01
aI01
aI01
aI01
aI01
aI01
aI01
aI01
aI01
aI01
aI01
aI01
aasg53
I18
sbsS'layoutText'
p102
(lp103
S'%%%%%%%%%%%%%%%%%%%%%%%%%%%%%%%%%%'
p104
aS'%   .%    %.%..   %.. .%       %4%'
p105
aS'% % %%. %o%.%%% % %% % %.%%%%%%%2%'
p106
aS'% % .% %%.% %.%      %.%.%  %  % %'
p107
aS'% % %%  %     .   %    % .  %  % %'
p108
aS'% % .%  %.% % %%  %%%    %  % %% %'
p109
aS'% % %% %% % % %   %   .%%%% %  % %'
p110
aS'% % .   % % % %   % .  %.%  %% % %'
p111
aS'% % %%%o%.. %.%%% %  %.%.%. %. % %'
p112
aS'% % .% .%.%.%  % %%%.% ..%o%%% % %'
p113
aS'% % %%  %.%  . %   % % % %   . % %'
p114
aS'% %  % %%%%.   %   % % % %% %% % %'
p115
aS'% %% %  %    %%%  %% % %.%  %. % %'
p116
aS'% %  %  . %    %   .     %  %% % %'
p117
aS'% %  %  %.%.%      %.% %.%% %. % %'
p118
aS'%1%%%%%%%.% % %% % %%%.%o% .%% % %'
p119
aS'%3%       %. ..%   ..%.%    %.   %'
p120
aS'%%%%%%%%%%%%%%%%%%%%%%%%%%%%%%%%%%'
p121
asbsS'blueTeamName'
p122
S'XR'
p123
sS'actions'
p124
(lp125
(I1
S'South'
p126
tp127
a(I2
S'North'
p128
tp129
a(I3
g126
tp130
a(I0
g128
tp131
a(I1
g126
tp132
a(I2
g128
tp133
a(I3
g126
tp134
a(I0
g128
tp135
a(I1
g126
tp136
a(I2
g128
tp137
a(I3
g126
tp138
a(I0
g128
tp139
a(I1
g126
tp140
a(I2
g128
tp141
a(I3
g126
tp142
a(I0
g128
tp143
a(I1
g126
tp144
a(I2
g128
tp145
a(I3
g126
tp146
a(I0
g128
tp147
a(I1
g126
tp148
a(I2
g128
tp149
a(I3
g126
tp150
a(I0
g128
tp151
a(I1
g126
tp152
a(I2
g128
tp153
a(I3
g126
tp154
a(I0
g128
tp155
a(I1
g126
tp156
a(I2
g128
tp157
a(I3
g126
tp158
a(I0
g128
tp159
a(I1
g126
tp160
a(I2
g128
tp161
a(I3
g126
tp162
a(I0
g128
tp163
a(I1
g126
tp164
a(I2
g128
tp165
a(I3
g126
tp166
a(I0
g128
tp167
a(I1
g126
tp168
a(I2
g128
tp169
a(I3
g126
tp170
a(I0
g128
tp171
a(I1
g126
tp172
a(I2
g128
tp173
a(I3
g126
tp174
a(I0
g128
tp175
a(I1
g126
tp176
a(I2
g128
tp177
a(I3
g126
tp178
a(I0
g128
tp179
a(I1
g126
tp180
a(I2
g128
tp181
a(I3
g126
tp182
a(I0
g128
tp183
a(I1
S'West'
p184
tp185
a(I2
g128
tp186
a(I3
g126
tp187
a(I0
S'East'
p188
tp189
a(I1
g184
tp190
a(I2
g188
tp191
a(I3
g184
tp192
a(I0
g188
tp193
a(I1
g128
tp194
a(I2
g188
tp195
a(I3
g184
tp196
a(I0
g126
tp197
a(I1
g128
tp198
a(I2
g126
tp199
a(I3
g128
tp200
a(I0
g126
tp201
a(I1
g128
tp202
a(I2
g126
tp203
a(I3
g128
tp204
a(I0
g126
tp205
a(I1
g128
tp206
a(I2
g126
tp207
a(I3
g128
tp208
a(I0
g126
tp209
a(I1
g128
tp210
a(I2
g126
tp211
a(I3
g128
tp212
a(I0
g126
tp213
a(I1
g128
tp214
a(I2
g126
tp215
a(I3
g128
tp216
a(I0
g126
tp217
a(I1
g184
tp218
a(I2
g126
tp219
a(I3
g128
tp220
a(I0
g188
tp221
a(I1
g184
tp222
a(I2
g188
tp223
a(I3
g128
tp224
a(I0
g188
tp225
a(I1
g184
tp226
a(I2
g188
tp227
a(I3
g128
tp228
a(I0
g188
tp229
a(I1
g184
tp230
a(I2
g188
tp231
a(I3
g184
tp232
a(I0
g128
tp233
a(I1
g128
tp234
a(I2
g188
tp235
a(I3
g188
tp236
a(I0
g128
tp237
a(I1
g128
tp238
a(I2
g126
tp239
a(I3
g128
tp240
a(I0
g128
tp241
a(I1
g128
tp242
a(I2
g126
tp243
a(I3
g128
tp244
a(I0
g128
tp245
a(I1
g188
tp246
a(I2
g126
tp247
a(I3
g184
tp248
a(I0
g128
tp249
a(I1
g128
tp250
a(I2
g184
tp251
a(I3
g128
tp252
a(I0
g128
tp253
a(I1
g128
tp254
a(I2
g126
tp255
a(I3
g128
tp256
a(I0
g188
tp257
a(I1
g128
tp258
a(I2
g126
tp259
a(I3
g188
tp260
a(I0
g188
tp261
a(I1
g184
tp262
a(I2
g126
tp263
a(I3
g128
tp264
a(I0
g188
tp265
a(I1
g184
tp266
a(I2
g188
tp267
a(I3
g184
tp268
a(I0
g126
tp269
a(I1
g184
tp270
a(I2
g188
tp271
a(I3
g126
tp272
a(I0
g126
tp273
a(I1
g126
tp274
a(I2
g188
tp275
a(I3
g188
tp276
a(I0
g126
tp277
a(I1
g184
tp278
a(I2
g128
tp279
a(I3
g128
tp280
a(I0
g188
tp281
a(I1
g184
tp282
a(I2
g188
tp283
a(I3
g184
tp284
a(I0
g188
tp285
a(I1
g184
tp286
a(I2
g188
tp287
a(I3
g126
tp288
a(I0
g188
tp289
a(I1
g128
tp290
a(I2
g188
tp291
a(I3
g188
tp292
a(I0
g188
tp293
a(I1
g184
tp294
a(I2
g126
tp295
a(I3
g128
tp296
a(I0
g188
tp297
a(I1
g184
tp298
a(I2
g188
tp299
a(I3
g184
tp300
a(I0
g188
tp301
a(I1
g128
tp302
a(I2
g188
tp303
a(I3
g126
tp304
a(I0
g188
tp305
a(I1
g184
tp306
a(I2
g126
tp307
a(I3
g126
tp308
a(I0
g128
tp309
a(I1
g184
tp310
a(I2
g188
tp311
a(I3
g126
tp312
a(I0
S'Stop'
p313
tp314
a(I1
g126
tp315
a(I2
g188
tp316
a(I3
g188
tp317
a(I0
g313
tp318
a(I1
g184
tp319
a(I2
g128
tp320
a(I3
g126
tp321
a(I0
g313
tp322
a(I1
g184
tp323
a(I2
g188
tp324
a(I3
g126
tp325
a(I0
g126
tp326
a(I1
g184
tp327
a(I2
g188
tp328
a(I3
g126
tp329
a(I0
g184
tp330
a(I1
g184
tp331
a(I2
g188
tp332
a(I3
g126
tp333
a(I0
g184
tp334
a(I1
g128
tp335
a(I2
g188
tp336
a(I3
g184
tp337
a(I0
g184
tp338
a(I1
g313
tp339
a(I2
g126
tp340
a(I3
g184
tp341
a(I0
g313
tp342
a(I1
g313
tp343
a(I2
g128
tp344
a(I3
g184
tp345
a(I0
g313
tp346
a(I1
g313
tp347
a(I2
g128
tp348
a(I3
g126
tp349
a(I0
g313
tp350
a(I1
g313
tp351
a(I2
g128
tp352
a(I3
g126
tp353
a(I0
g313
tp354
a(I1
g313
tp355
a(I2
g128
tp356
a(I3
g126
tp357
a(I0
g313
tp358
a(I1
g313
tp359
a(I2
g128
tp360
a(I3
g126
tp361
a(I0
g313
tp362
a(I1
g313
tp363
a(I2
g128
tp364
a(I3
g126
tp365
a(I0
g313
tp366
a(I1
g313
tp367
a(I2
g128
tp368
a(I3
g126
tp369
a(I0
g313
tp370
a(I1
g313
tp371
a(I2
g188
tp372
a(I3
g184
tp373
a(I0
g313
tp374
a(I1
g313
tp375
a(I2
g188
tp376
a(I3
g184
tp377
a(I0
g313
tp378
a(I1
g313
tp379
a(I2
g126
tp380
a(I3
g184
tp381
a(I0
g313
tp382
a(I1
g313
tp383
a(I2
g126
tp384
a(I3
g128
tp385
a(I0
g313
tp386
a(I1
g313
tp387
a(I2
g188
tp388
a(I3
g128
tp389
a(I0
g313
tp390
a(I1
g313
tp391
a(I2
g188
tp392
a(I3
g128
tp393
a(I0
g313
tp394
a(I1
g313
tp395
a(I2
g128
tp396
a(I3
g184
tp397
a(I0
g313
tp398
a(I1
g313
tp399
a(I2
g128
tp400
a(I3
g184
tp401
a(I0
g313
tp402
a(I1
g313
tp403
a(I2
g126
tp404
a(I3
g184
tp405
a(I0
g313
tp406
a(I1
g313
tp407
a(I2
g126
tp408
a(I3
g184
tp409
a(I0
g313
tp410
a(I1
g313
tp411
a(I2
g126
tp412
a(I3
g184
tp413
a(I0
g313
tp414
a(I1
g313
tp415
a(I2
g126
tp416
a(I3
g184
tp417
a(I0
g313
tp418
a(I1
g313
tp419
a(I2
g126
tp420
a(I3
g184
tp421
a(I0
g313
tp422
a(I1
g313
tp423
a(I2
g126
tp424
a(I3
g126
tp425
a(I0
g313
tp426
a(I1
g313
tp427
a(I2
g126
tp428
a(I3
g184
tp429
a(I0
g313
tp430
a(I1
g313
tp431
a(I2
g128
tp432
a(I3
g184
tp433
a(I0
g313
tp434
a(I1
g313
tp435
a(I2
g184
tp436
a(I3
g184
tp437
a(I0
g313
tp438
a(I1
g313
tp439
a(I2
g184
tp440
a(I3
g184
tp441
a(I0
g313
tp442
a(I1
g313
tp443
a(I2
g126
tp444
a(I3
g126
tp445
a(I0
g313
tp446
a(I1
g313
tp447
a(I2
g126
tp448
a(I3
g126
tp449
a(I0
g313
tp450
a(I1
g313
tp451
a(I2
g126
tp452
a(I3
g188
tp453
a(I0
g313
tp454
a(I1
g313
tp455
a(I2
g128
tp456
a(I3
g184
tp457
a(I0
g313
tp458
a(I1
g313
tp459
a(I2
g128
tp460
a(I3
g184
tp461
a(I0
g313
tp462
a(I1
g313
tp463
a(I2
g128
tp464
a(I3
g184
tp465
a(I0
g313
tp466
a(I1
g313
tp467
a(I2
g184
tp468
a(I3
g128
tp469
a(I0
g313
tp470
a(I1
g313
tp471
a(I2
g184
tp472
a(I3
g128
tp473
a(I0
g313
tp474
a(I1
g313
tp475
a(I2
g184
tp476
a(I3
g128
tp477
a(I0
g313
tp478
a(I1
g313
tp479
a(I2
g184
tp480
a(I3
g128
tp481
a(I0
g313
tp482
a(I1
g313
tp483
a(I2
g126
tp484
a(I3
g128
tp485
a(I0
g313
tp486
a(I1
g313
tp487
a(I2
g126
tp488
a(I3
g128
tp489
a(I0
g313
tp490
a(I1
g313
tp491
a(I2
g126
tp492
a(I3
g128
tp493
a(I0
g313
tp494
a(I1
g313
tp495
a(I2
g188
tp496
a(I3
g128
tp497
a(I0
g313
tp498
a(I1
g313
tp499
a(I2
g188
tp500
a(I3
g184
tp501
a(I0
g313
tp502
a(I1
g313
tp503
a(I2
g184
tp504
a(I3
g184
tp505
a(I0
g313
tp506
a(I1
g313
tp507
a(I2
g184
tp508
a(I3
g126
tp509
a(I0
g313
tp510
a(I1
g313
tp511
a(I2
g128
tp512
a(I3
g126
tp513
a(I0
g313
tp514
a(I1
g313
tp515
a(I2
g128
tp516
a(I3
g128
tp517
a(I0
g313
tp518
a(I1
g313
tp519
a(I2
g128
tp520
a(I3
g128
tp521
a(I0
g313
tp522
a(I1
g313
tp523
a(I2
g188
tp524
a(I3
g128
tp525
a(I0
g313
tp526
a(I1
g313
tp527
a(I2
g188
tp528
a(I3
g128
tp529
a(I0
g313
tp530
a(I1
g313
tp531
a(I2
g188
tp532
a(I3
g128
tp533
a(I0
g313
tp534
a(I1
g313
tp535
a(I2
g188
tp536
a(I3
g128
tp537
a(I0
g313
tp538
a(I1
g313
tp539
a(I2
g188
tp540
a(I3
g128
tp541
a(I0
g313
tp542
a(I1
g313
tp543
a(I2
g188
tp544
a(I3
g126
tp545
a(I0
g313
tp546
a(I1
g313
tp547
a(I2
g126
tp548
a(I3
g188
tp549
a(I0
g313
tp550
a(I1
g313
tp551
a(I2
g126
tp552
a(I3
g188
tp553
a(I0
g313
tp554
a(I1
g313
tp555
a(I2
g126
tp556
a(I3
g128
tp557
a(I0
g313
tp558
a(I1
g313
tp559
a(I2
g188
tp560
a(I3
g128
tp561
a(I0
g313
tp562
a(I1
g313
tp563
a(I2
g188
tp564
a(I3
g128
tp565
a(I0
g313
tp566
a(I1
g313
tp567
a(I2
g188
tp568
a(I3
g126
tp569
a(I0
g313
tp570
a(I1
g313
tp571
a(I2
g128
tp572
a(I3
g126
tp573
a(I0
g313
tp574
a(I1
g313
tp575
a(I2
g128
tp576
a(I3
g126
tp577
a(I0
g313
tp578
a(I1
g313
tp579
a(I2
g128
tp580
a(I3
g188
tp581
a(I0
g313
tp582
a(I1
g313
tp583
a(I2
g128
tp584
a(I3
g313
tp585
a(I0
g313
tp586
a(I1
g313
tp587
a(I2
g128
tp588
a(I3
g313
tp589
a(I0
g313
tp590
a(I1
g313
tp591
a(I2
g128
tp592
a(I3
g313
tp593
a(I0
g313
tp594
a(I1
g313
tp595
a(I2
g188
tp596
a(I3
g313
tp597
a(I0
g313
tp598
a(I1
g313
tp599
a(I2
g188
tp600
a(I3
g313
tp601
a(I0
g313
tp602
a(I1
g313
tp603
a(I2
g188
tp604
a(I3
g313
tp605
a(I0
g313
tp606
a(I1
g313
tp607
a(I2
g126
tp608
a(I3
g313
tp609
a(I0
g313
tp610
a(I1
g313
tp611
a(I2
g126
tp612
a(I3
g313
tp613
a(I0
g313
tp614
a(I1
g313
tp615
a(I2
g184
tp616
a(I3
g313
tp617
a(I0
g313
tp618
a(I1
g313
tp619
a(I2
g188
tp620
a(I3
g313
tp621
a(I0
g313
tp622
a(I1
g313
tp623
a(I2
g126
tp624
a(I3
g313
tp625
a(I0
g313
tp626
a(I1
g313
tp627
a(I2
g126
tp628
a(I3
g313
tp629
a(I0
g313
tp630
a(I1
g313
tp631
a(I2
g184
tp632
a(I3
g313
tp633
a(I0
g313
tp634
a(I1
g313
tp635
a(I2
g188
tp636
a(I3
g313
tp637
a(I0
g313
tp638
a(I1
g313
tp639
a(I2
g126
tp640
a(I3
g313
tp641
a(I0
g313
tp642
a(I1
g313
tp643
a(I2
g126
tp644
a(I3
g313
tp645
a(I0
g313
tp646
a(I1
g313
tp647
a(I2
g184
tp648
a(I3
g313
tp649
a(I0
g313
tp650
a(I1
g313
tp651
a(I2
g188
tp652
a(I3
g313
tp653
a(I0
g313
tp654
a(I1
g313
tp655
a(I2
g128
tp656
a(I3
g313
tp657
a(I0
g313
tp658
a(I1
g313
tp659
a(I2
g128
tp660
a(I3
g313
tp661
a(I0
g313
tp662
a(I1
g313
tp663
a(I2
g128
tp664
a(I3
g313
tp665
a(I0
g313
tp666
a(I1
g313
tp667
a(I2
g128
tp668
a(I3
g313
tp669
a(I0
g313
tp670
a(I1
g313
tp671
a(I2
g128
tp672
a(I3
g313
tp673
a(I0
g313
tp674
a(I1
g313
tp675
a(I2
g128
tp676
a(I3
g313
tp677
a(I0
g313
tp678
a(I1
g313
tp679
a(I2
g128
tp680
a(I3
g313
tp681
a(I0
g313
tp682
a(I1
g313
tp683
a(I2
g128
tp684
a(I3
g313
tp685
a(I0
g313
tp686
a(I1
g313
tp687
a(I2
g184
tp688
a(I3
g313
tp689
a(I0
g313
tp690
a(I1
g313
tp691
a(I2
g188
tp692
a(I3
g313
tp693
a(I0
g313
tp694
a(I1
g313
tp695
a(I2
g126
tp696
a(I3
g313
tp697
a(I0
g313
tp698
a(I1
g313
tp699
a(I2
g126
tp700
a(I3
g313
tp701
a(I0
g313
tp702
a(I1
g313
tp703
a(I2
g184
tp704
a(I3
g313
tp705
a(I0
g313
tp706
a(I1
g313
tp707
a(I2
g184
tp708
a(I3
g313
tp709
a(I0
g313
tp710
a(I1
g313
tp711
a(I2
g184
tp712
a(I3
g313
tp713
a(I0
g313
tp714
a(I1
g313
tp715
a(I2
g184
tp716
a(I3
g313
tp717
a(I0
g313
tp718
a(I1
g313
tp719
a(I2
g128
tp720
a(I3
g313
tp721
a(I0
g313
tp722
a(I1
g313
tp723
a(I2
g128
tp724
a(I3
g313
tp725
a(I0
g313
tp726
a(I1
g313
tp727
a(I2
g188
tp728
a(I3
g313
tp729
a(I0
g313
tp730
a(I1
g313
tp731
a(I2
g128
tp732
a(I3
g313
tp733
a(I0
g313
tp734
a(I1
g313
tp735
a(I2
g128
tp736
a(I3
g313
tp737
a(I0
g313
tp738
a(I1
g313
tp739
a(I2
g128
tp740
a(I3
g313
tp741
a(I0
g313
tp742
a(I1
g313
tp743
a(I2
g128
tp744
a(I3
g313
tp745
a(I0
g313
tp746
a(I1
g313
tp747
a(I2
g184
tp748
a(I3
g313
tp749
a(I0
g313
tp750
a(I1
g313
tp751
a(I2
g184
tp752
a(I3
g313
tp753
a(I0
g313
tp754
a(I1
g313
tp755
a(I2
g184
tp756
a(I3
g313
tp757
a(I0
g313
tp758
a(I1
g313
tp759
a(I2
g128
tp760
a(I3
g313
tp761
a(I0
g313
tp762
a(I1
g313
tp763
a(I2
g128
tp764
a(I3
g313
tp765
a(I0
g313
tp766
a(I1
g313
tp767
a(I2
g126
tp768
a(I3
g313
tp769
a(I0
g313
tp770
a(I1
g313
tp771
a(I2
g126
tp772
a(I3
g313
tp773
a(I0
g313
tp774
a(I1
g313
tp775
a(I2
g126
tp776
a(I3
g313
tp777
a(I0
g313
tp778
a(I1
g313
tp779
a(I2
g184
tp780
a(I3
g313
tp781
a(I0
g313
tp782
a(I1
g313
tp783
a(I2
g184
tp784
a(I3
g313
tp785
a(I0
g313
tp786
a(I1
g313
tp787
a(I2
g126
tp788
a(I3
g313
tp789
a(I0
g313
tp790
a(I1
g313
tp791
a(I2
g128
tp792
a(I3
g313
tp793
a(I0
g313
tp794
a(I1
g313
tp795
a(I2
g128
tp796
a(I3
g313
tp797
a(I0
g313
tp798
a(I1
g313
tp799
a(I2
g128
tp800
a(I3
g313
tp801
a(I0
g313
tp802
a(I1
g313
tp803
a(I2
g128
tp804
a(I3
g313
tp805
a(I0
g313
tp806
a(I1
g313
tp807
a(I2
g128
tp808
asS'length'
p809
I1200
sS'agents'
p810
(lp811
(igame
Agent
p812
(dp813
S'index'
p814
I0
sba(igame
Agent
p815
(dp816
g814
I0
sba(igame
Agent
p817
(dp818
g814
I0
sba(igame
Agent
p819
(dp820
g814
I0
sbasS'redTeamName'
p821
S'2Pac'
p822
s.